---
triple:          'arm64-apple-darwin'
binary-path:     '/Users/myieh./Desktop/Tutorial/rmit/week 7/output/exercise1'
relocations:
  - { offsetInCU: 0x4D16, offset: 0x4D16, size: 0x8, addend: 0x0, symName: __ZNSt3__124__put_character_sequenceB7v160006IcNS_11char_traitsIcEEEERNS_13basic_ostreamIT_T0_EES7_PKS4_m, symObjAddr: 0x28D0, symBinAddr: 0x100002FC0, symSize: 0x1F4 }
  - { offsetInCU: 0x83A9, offset: 0x83A9, size: 0x8, addend: 0x0, symName: __ZNSt3__119__debug_db_insert_cB7v160006INS_6vectorINS_12basic_stringIcNS_11char_traitsIcEENS_9allocatorIcEEEENS5_IS7_EEEEEEvPT_, symObjAddr: 0xA1C, symBinAddr: 0x10000110C, symSize: 0x10 }
  - { offsetInCU: 0x83DA, offset: 0x83DA, size: 0x8, addend: 0x0, symName: __ZNSt3__1lsB7v160006INS_11char_traitsIcEEEERNS_13basic_ostreamIcT_EES6_PKc, symObjAddr: 0xC50, symBinAddr: 0x100001340, symSize: 0x48 }
  - { offsetInCU: 0x8420, offset: 0x8420, size: 0x8, addend: 0x0, symName: __ZNSt3__1lsB7v160006IcNS_11char_traitsIcEENS_9allocatorIcEEEERNS_13basic_ostreamIT_T0_EES9_RKNS_12basic_stringIS6_S7_T1_EE, symObjAddr: 0xC98, symBinAddr: 0x100001388, symSize: 0x4C }
  - { offsetInCU: 0x8478, offset: 0x8478, size: 0x8, addend: 0x0, symName: __ZNSt3__14endlB7v160006IcNS_11char_traitsIcEEEERNS_13basic_ostreamIT_T0_EES7_, symObjAddr: 0xD48, symBinAddr: 0x100001438, symSize: 0x58 }
  - { offsetInCU: 0x84B8, offset: 0x84B8, size: 0x8, addend: 0x0, symName: __ZNSt3__112__to_addressB7v160006INS_12basic_stringIcNS_11char_traitsIcEENS_9allocatorIcEEEEEEPT_S8_, symObjAddr: 0x107C, symBinAddr: 0x10000176C, symSize: 0x14 }
  - { offsetInCU: 0x84ED, offset: 0x84ED, size: 0x8, addend: 0x0, symName: __ZNSt3__13maxB7v160006ImEERKT_S3_S3_, symObjAddr: 0x14C4, symBinAddr: 0x100001BB4, symSize: 0x2C }
  - { offsetInCU: 0x8530, offset: 0x8530, size: 0x8, addend: 0x0, symName: __ZNSt3__13minB7v160006ImEERKT_S3_S3_, symObjAddr: 0x14F0, symBinAddr: 0x100001BE0, symSize: 0x2C }
  - { offsetInCU: 0x8774, offset: 0x8774, size: 0x8, addend: 0x0, symName: __ZNSt3__13minB7v160006ImNS_6__lessImmEEEERKT_S5_S5_T0_, symObjAddr: 0x157C, symBinAddr: 0x100001C6C, symSize: 0x54 }
  - { offsetInCU: 0x8809, offset: 0x8809, size: 0x8, addend: 0x0, symName: __ZNSt3__120__throw_length_errorB7v160006EPKc, symObjAddr: 0x165C, symBinAddr: 0x100001D4C, symSize: 0x64 }
  - { offsetInCU: 0x8831, offset: 0x8831, size: 0x8, addend: 0x0, symName: __ZNSt3__13maxB7v160006ImNS_6__lessImmEEEERKT_S5_S5_T0_, symObjAddr: 0x17A0, symBinAddr: 0x100001E90, symSize: 0x54 }
  - { offsetInCU: 0x888B, offset: 0x888B, size: 0x8, addend: 0x0, symName: __ZNSt3__119__allocate_at_leastB7v160006INS_9allocatorINS_12basic_stringIcNS_11char_traitsIcEENS1_IcEEEEEEEENS_19__allocation_resultINS_16allocator_traitsIT_E7pointerEEERSA_m, symObjAddr: 0x1910, symBinAddr: 0x100002000, symSize: 0x40 }
  - { offsetInCU: 0x88CE, offset: 0x88CE, size: 0x8, addend: 0x0, symName: __ZNSt3__130__libcpp_is_constant_evaluatedB7v160006Ev, symObjAddr: 0x1AC8, symBinAddr: 0x1000021B8, symSize: 0xC }
  - { offsetInCU: 0x88EB, offset: 0x88EB, size: 0x8, addend: 0x0, symName: __ZNSt3__117__libcpp_allocateB7v160006Emm, symObjAddr: 0x1AD4, symBinAddr: 0x1000021C4, symSize: 0x28 }
  - { offsetInCU: 0x8928, offset: 0x8928, size: 0x8, addend: 0x0, symName: __ZNSt3__121__libcpp_operator_newB7v160006IJmEEEPvDpT_, symObjAddr: 0x1AFC, symBinAddr: 0x1000021EC, symSize: 0x24 }
  - { offsetInCU: 0x8961, offset: 0x8961, size: 0x8, addend: 0x0, symName: __ZNSt3__142__uninitialized_allocator_move_if_noexceptB7v160006INS_9allocatorINS_12basic_stringIcNS_11char_traitsIcEENS1_IcEEEEEENS_16reverse_iteratorIPS6_EESA_SA_EET2_RT_T0_T1_SB_, symObjAddr: 0x1C58, symBinAddr: 0x100002348, symSize: 0x134 }
  - { offsetInCU: 0x8A01, offset: 0x8A01, size: 0x8, addend: 0x0, symName: __ZNSt3__14swapB7v160006IPNS_12basic_stringIcNS_11char_traitsIcEENS_9allocatorIcEEEEEEvRT_S9_, symObjAddr: 0x1DD8, symBinAddr: 0x1000024C8, symSize: 0x3C }
  - { offsetInCU: 0x8A52, offset: 0x8A52, size: 0x8, addend: 0x0, symName: __ZNSt3__125__debug_db_invalidate_allB7v160006INS_6vectorINS_12basic_stringIcNS_11char_traitsIcEENS_9allocatorIcEEEENS5_IS7_EEEEEEvPT_, symObjAddr: 0x1EDC, symBinAddr: 0x1000025CC, symSize: 0x10 }
  - { offsetInCU: 0x8A83, offset: 0x8A83, size: 0x8, addend: 0x0, symName: __ZNSt3__122__make_exception_guardB7v160006INS_29_AllocatorDestroyRangeReverseINS_9allocatorINS_12basic_stringIcNS_11char_traitsIcEENS2_IcEEEEEENS_16reverse_iteratorIPS7_EEEEEENS_28__exception_guard_exceptionsIT_EESE_, symObjAddr: 0x1F34, symBinAddr: 0x100002624, symSize: 0x4C }
  - { offsetInCU: 0x8AB9, offset: 0x8AB9, size: 0x8, addend: 0x0, symName: __ZNSt3__1neB7v160006IPNS_12basic_stringIcNS_11char_traitsIcEENS_9allocatorIcEEEES7_EEbRKNS_16reverse_iteratorIT_EERKNS8_IT0_EE, symObjAddr: 0x1FC4, symBinAddr: 0x1000026B4, symSize: 0x48 }
  - { offsetInCU: 0x8B05, offset: 0x8B05, size: 0x8, addend: 0x0, symName: __ZNSt3__112__to_addressB7v160006INS_16reverse_iteratorIPNS_12basic_stringIcNS_11char_traitsIcEENS_9allocatorIcEEEEEEvEENS_5decayIDTclsr19__to_address_helperIT_EE6__callclsr3stdE7declvalIRKSB_EEEEE4typeESD_, symObjAddr: 0x200C, symBinAddr: 0x1000026FC, symSize: 0x24 }
  - { offsetInCU: 0x8B64, offset: 0x8B64, size: 0x8, addend: 0x0, symName: __ZNSt3__119__allocator_destroyB7v160006INS_9allocatorINS_12basic_stringIcNS_11char_traitsIcEENS1_IcEEEEEENS_16reverse_iteratorINS8_IPS6_EEEESB_EEvRT_T0_T1_, symObjAddr: 0x22C8, symBinAddr: 0x1000029B8, symSize: 0x70 }
  - { offsetInCU: 0x8BC9, offset: 0x8BC9, size: 0x8, addend: 0x0, symName: __ZNSt3__1neB7v160006INS_16reverse_iteratorIPNS_12basic_stringIcNS_11char_traitsIcEENS_9allocatorIcEEEEEES9_EEbRKNS1_IT_EERKNS1_IT0_EE, symObjAddr: 0x2374, symBinAddr: 0x100002A64, symSize: 0x60 }
  - { offsetInCU: 0x8C15, offset: 0x8C15, size: 0x8, addend: 0x0, symName: __ZNSt3__112__to_addressB7v160006INS_16reverse_iteratorINS1_IPNS_12basic_stringIcNS_11char_traitsIcEENS_9allocatorIcEEEEEEEEvEENS_5decayIDTclsr19__to_address_helperIT_EE6__callclsr3stdE7declvalIRKSC_EEEEE4typeESE_, symObjAddr: 0x2400, symBinAddr: 0x100002AF0, symSize: 0x24 }
  - { offsetInCU: 0x8C74, offset: 0x8C74, size: 0x8, addend: 0x0, symName: __ZNSt3__119__libcpp_deallocateB7v160006EPvmm, symObjAddr: 0x2808, symBinAddr: 0x100002EF8, symSize: 0x30 }
  - { offsetInCU: 0x8CBC, offset: 0x8CBC, size: 0x8, addend: 0x0, symName: __ZNSt3__127__do_deallocate_handle_sizeB7v160006IJEEEvPvmDpT_, symObjAddr: 0x2838, symBinAddr: 0x100002F28, symSize: 0x28 }
  - { offsetInCU: 0x8CFA, offset: 0x8CFA, size: 0x8, addend: 0x0, symName: __ZNSt3__124__libcpp_operator_deleteB7v160006IJPvEEEvDpT_, symObjAddr: 0x2860, symBinAddr: 0x100002F50, symSize: 0x24 }
  - { offsetInCU: 0x8D2F, offset: 0x8D2F, size: 0x8, addend: 0x0, symName: __ZNSt3__116__pad_and_outputB7v160006IcNS_11char_traitsIcEEEENS_19ostreambuf_iteratorIT_T0_EES6_PKS4_S8_S8_RNS_8ios_baseES4_, symObjAddr: 0x2B28, symBinAddr: 0x100003218, symSize: 0x248 }
  - { offsetInCU: 0x8DFE, offset: 0x8DFE, size: 0x8, addend: 0x0, symName: __ZNSt3__119__debug_db_insert_cB7v160006INS_12basic_stringIcNS_11char_traitsIcEENS_9allocatorIcEEEEEEvPT_, symObjAddr: 0x2FE4, symBinAddr: 0x1000036D4, symSize: 0x10 }
  - { offsetInCU: 0x8E2F, offset: 0x8E2F, size: 0x8, addend: 0x0, symName: __ZNSt3__112__to_addressB7v160006IKcEEPT_S3_, symObjAddr: 0x30B0, symBinAddr: 0x1000037A0, symSize: 0x14 }
  - { offsetInCU: 0x8E97, offset: 0x8E97, size: 0x8, addend: 0x0, symName: __ZNSt3__19use_facetB7v160006INS_5ctypeIcEEEERKT_RKNS_6localeE, symObjAddr: 0x3388, symBinAddr: 0x100003A78, symSize: 0x2C }
  - { offsetInCU: 0x9366, offset: 0x9366, size: 0x8, addend: 0x0, symName: __ZNSt3__118__constexpr_strlenB7v160006EPKc, symObjAddr: 0x3420, symBinAddr: 0x100003B10, symSize: 0x24 }
  - { offsetInCU: 0x9392, offset: 0x9392, size: 0x8, addend: 0x0, symName: __ZNSt3__14findB7v160006INS_11__wrap_iterIPP4BookEES3_EET_S6_S6_RKT0_, symObjAddr: 0x3638, symBinAddr: 0x100003D28, symSize: 0x80 }
  - { offsetInCU: 0x93EC, offset: 0x93EC, size: 0x8, addend: 0x0, symName: __ZNSt3__1neB7v160006IPP4BookEEbRKNS_11__wrap_iterIT_EES8_, symObjAddr: 0x3718, symBinAddr: 0x100003E08, symSize: 0x34 }
  - { offsetInCU: 0x944B, offset: 0x944B, size: 0x8, addend: 0x0, symName: __ZNSt3__14findB7v160006INS_11__wrap_iterIPNS_12basic_stringIcNS_11char_traitsIcEENS_9allocatorIcEEEEEES7_EET_SA_SA_RKT0_, symObjAddr: 0x383C, symBinAddr: 0x100003F2C, symSize: 0x74 }
  - { offsetInCU: 0x94A5, offset: 0x94A5, size: 0x8, addend: 0x0, symName: __ZNSt3__1neB7v160006IPNS_12basic_stringIcNS_11char_traitsIcEENS_9allocatorIcEEEEEEbRKNS_11__wrap_iterIT_EESC_, symObjAddr: 0x3910, symBinAddr: 0x100004000, symSize: 0x34 }
  - { offsetInCU: 0x94E8, offset: 0x94E8, size: 0x8, addend: 0x0, symName: __ZNSt3__1eqB7v160006INS_9allocatorIcEEEEbRKNS_12basic_stringIcNS_11char_traitsIcEET_EES9_, symObjAddr: 0x3A3C, symBinAddr: 0x10000412C, symSize: 0x148 }
  - { offsetInCU: 0x955B, offset: 0x955B, size: 0x8, addend: 0x0, symName: __ZNSt3__118__constexpr_memcmpB7v160006IcEEiPKT_S3_m, symObjAddr: 0x3C3C, symBinAddr: 0x10000432C, symSize: 0x34 }
  - { offsetInCU: 0x95AC, offset: 0x95AC, size: 0x8, addend: 0x0, symName: __ZNSt3__1eqB7v160006IPNS_12basic_stringIcNS_11char_traitsIcEENS_9allocatorIcEEEEEEbRKNS_11__wrap_iterIT_EESC_, symObjAddr: 0x3D04, symBinAddr: 0x1000043F4, symSize: 0x48 }
  - { offsetInCU: 0x95EF, offset: 0x95EF, size: 0x8, addend: 0x0, symName: __ZNSt3__1miB7v160006IPKNS_12basic_stringIcNS_11char_traitsIcEENS_9allocatorIcEEEES8_EENS_11__wrap_iterIT_E15difference_typeERKSB_RKNS9_IT0_EE, symObjAddr: 0x3D64, symBinAddr: 0x100004454, symSize: 0x48 }
  - { offsetInCU: 0x963B, offset: 0x963B, size: 0x8, addend: 0x0, symName: __ZNSt3__14moveB7v160006IPNS_12basic_stringIcNS_11char_traitsIcEENS_9allocatorIcEEEES7_EET0_T_S9_S8_, symObjAddr: 0x3E60, symBinAddr: 0x100004550, symSize: 0x40 }
  - { offsetInCU: 0x9695, offset: 0x9695, size: 0x8, addend: 0x0, symName: __ZNSt3__16__moveB7v160006INS_17_ClassicAlgPolicyEPNS_12basic_stringIcNS_11char_traitsIcEENS_9allocatorIcEEEES8_S8_EENS_4pairIT0_T2_EESA_T1_SB_, symObjAddr: 0x4100, symBinAddr: 0x1000047F0, symSize: 0x44 }
  - { offsetInCU: 0x9701, offset: 0x9701, size: 0x8, addend: 0x0, symName: __ZNSt3__123__dispatch_copy_or_moveB7v160006INS_17_ClassicAlgPolicyENS_11__move_loopIS1_EENS_14__move_trivialEPNS_12basic_stringIcNS_11char_traitsIcEENS_9allocatorIcEEEESB_SB_EENS_4pairIT2_T4_EESD_T3_SE_, symObjAddr: 0x4144, symBinAddr: 0x100004834, symSize: 0x70 }
  - { offsetInCU: 0x977F, offset: 0x977F, size: 0x8, addend: 0x0, symName: __ZNSt3__121__unwrap_and_dispatchB7v160006INS_11__move_loopINS_17_ClassicAlgPolicyEEEPNS_12basic_stringIcNS_11char_traitsIcEENS_9allocatorIcEEEESA_SA_Li0EEENS_4pairIT0_T2_EESC_T1_SD_, symObjAddr: 0x41B4, symBinAddr: 0x1000048A4, symSize: 0xB4 }
  - { offsetInCU: 0x980D, offset: 0x980D, size: 0x8, addend: 0x0, symName: __ZNSt3__121__unwrap_and_dispatchB7v160006INS_10__overloadINS_11__move_loopINS_17_ClassicAlgPolicyEEENS_14__move_trivialEEEPNS_12basic_stringIcNS_11char_traitsIcEENS_9allocatorIcEEEESD_SD_Li0EEENS_4pairIT0_T2_EESF_T1_SG_, symObjAddr: 0x4268, symBinAddr: 0x100004958, symSize: 0xB4 }
  - { offsetInCU: 0x989B, offset: 0x989B, size: 0x8, addend: 0x0, symName: __ZNSt3__114__unwrap_rangeB7v160006IPNS_12basic_stringIcNS_11char_traitsIcEENS_9allocatorIcEEEES7_EENS_4pairIT0_S9_EET_SB_, symObjAddr: 0x431C, symBinAddr: 0x100004A0C, symSize: 0x60 }
  - { offsetInCU: 0x9A2E, offset: 0x9A2E, size: 0x8, addend: 0x0, symName: __ZNSt3__113__unwrap_iterB7v160006IPNS_12basic_stringIcNS_11char_traitsIcEENS_9allocatorIcEEEENS_18__unwrap_iter_implIS7_Lb1EEELi0EEEDTclsrT0_8__unwrapclsr3stdE7declvalIT_EEEESB_, symObjAddr: 0x440C, symBinAddr: 0x100004AFC, symSize: 0x24 }
  - { offsetInCU: 0x9A72, offset: 0x9A72, size: 0x8, addend: 0x0, symName: __ZNSt3__19make_pairB7v160006IPNS_12basic_stringIcNS_11char_traitsIcEENS_9allocatorIcEEEES7_EENS_4pairINS_18__unwrap_ref_decayIT_E4typeENS9_IT0_E4typeEEEOSA_OSD_, symObjAddr: 0x4430, symBinAddr: 0x100004B20, symSize: 0x38 }
  - { offsetInCU: 0x9AC1, offset: 0x9AC1, size: 0x8, addend: 0x0, symName: __ZNSt3__114__rewrap_rangeB7v160006IPNS_12basic_stringIcNS_11char_traitsIcEENS_9allocatorIcEEEES7_EET_S8_T0_, symObjAddr: 0x4468, symBinAddr: 0x100004B58, symSize: 0x2C }
  - { offsetInCU: 0x9B0D, offset: 0x9B0D, size: 0x8, addend: 0x0, symName: __ZNSt3__113__rewrap_iterB7v160006IPNS_12basic_stringIcNS_11char_traitsIcEENS_9allocatorIcEEEES7_NS_18__unwrap_iter_implIS7_Lb1EEEEET_SA_T0_, symObjAddr: 0x4494, symBinAddr: 0x100004B84, symSize: 0x50 }
  - { offsetInCU: 0x9C52, offset: 0x9C52, size: 0x8, addend: 0x0, symName: __ZNSt3__1eqB7v160006IPP4BookEEbRKNS_11__wrap_iterIT_EES8_, symObjAddr: 0x4708, symBinAddr: 0x100004DF8, symSize: 0x48 }
  - { offsetInCU: 0x9C95, offset: 0x9C95, size: 0x8, addend: 0x0, symName: __ZNSt3__1miB7v160006IPKP4BookS4_EENS_11__wrap_iterIT_E15difference_typeERKS7_RKNS5_IT0_EE, symObjAddr: 0x4768, symBinAddr: 0x100004E58, symSize: 0x48 }
  - { offsetInCU: 0x9CE1, offset: 0x9CE1, size: 0x8, addend: 0x0, symName: __ZNSt3__14moveB7v160006IPP4BookS3_EET0_T_S5_S4_, symObjAddr: 0x4864, symBinAddr: 0x100004F54, symSize: 0x40 }
  - { offsetInCU: 0x9D3B, offset: 0x9D3B, size: 0x8, addend: 0x0, symName: __ZNSt3__112__to_addressB7v160006IP4BookEEPT_S4_, symObjAddr: 0x4B3C, symBinAddr: 0x10000522C, symSize: 0x14 }
  - { offsetInCU: 0x9D70, offset: 0x9D70, size: 0x8, addend: 0x0, symName: __ZNSt3__16__moveB7v160006INS_17_ClassicAlgPolicyEPP4BookS4_S4_EENS_4pairIT0_T2_EES6_T1_S7_, symObjAddr: 0x4C84, symBinAddr: 0x100005374, symSize: 0x44 }
  - { offsetInCU: 0x9DDC, offset: 0x9DDC, size: 0x8, addend: 0x0, symName: __ZNSt3__123__dispatch_copy_or_moveB7v160006INS_17_ClassicAlgPolicyENS_11__move_loopIS1_EENS_14__move_trivialEPP4BookS7_S7_EENS_4pairIT2_T4_EES9_T3_SA_, symObjAddr: 0x4CC8, symBinAddr: 0x1000053B8, symSize: 0x54 }
  - { offsetInCU: 0x9E5A, offset: 0x9E5A, size: 0x8, addend: 0x0, symName: __ZNSt3__121__unwrap_and_dispatchB7v160006INS_10__overloadINS_11__move_loopINS_17_ClassicAlgPolicyEEENS_14__move_trivialEEEPP4BookS9_S9_Li0EEENS_4pairIT0_T2_EESB_T1_SC_, symObjAddr: 0x4D1C, symBinAddr: 0x10000540C, symSize: 0xB4 }
  - { offsetInCU: 0x9EE8, offset: 0x9EE8, size: 0x8, addend: 0x0, symName: __ZNSt3__114__unwrap_rangeB7v160006IPP4BookS3_EENS_4pairIT0_S5_EET_S7_, symObjAddr: 0x4DD0, symBinAddr: 0x1000054C0, symSize: 0x60 }
  - { offsetInCU: 0xA027, offset: 0xA027, size: 0x8, addend: 0x0, symName: __ZNSt3__113__unwrap_iterB7v160006IPP4BookNS_18__unwrap_iter_implIS3_Lb1EEELi0EEEDTclsrT0_8__unwrapclsr3stdE7declvalIT_EEEES7_, symObjAddr: 0x4E78, symBinAddr: 0x100005568, symSize: 0x24 }
  - { offsetInCU: 0xA06B, offset: 0xA06B, size: 0x8, addend: 0x0, symName: __ZNSt3__19make_pairB7v160006IPP4BookS3_EENS_4pairINS_18__unwrap_ref_decayIT_E4typeENS5_IT0_E4typeEEEOS6_OS9_, symObjAddr: 0x4E9C, symBinAddr: 0x10000558C, symSize: 0x38 }
  - { offsetInCU: 0xA0BA, offset: 0xA0BA, size: 0x8, addend: 0x0, symName: __ZNSt3__114__rewrap_rangeB7v160006IPP4BookS3_EET_S4_T0_, symObjAddr: 0x4ED4, symBinAddr: 0x1000055C4, symSize: 0x2C }
  - { offsetInCU: 0xA106, offset: 0xA106, size: 0x8, addend: 0x0, symName: __ZNSt3__113__rewrap_iterB7v160006IPP4BookS3_NS_18__unwrap_iter_implIS3_Lb1EEEEET_S6_T0_, symObjAddr: 0x4F00, symBinAddr: 0x1000055F0, symSize: 0x50 }
  - { offsetInCU: 0xA15B, offset: 0xA15B, size: 0x8, addend: 0x0, symName: __ZNSt3__119__copy_trivial_implB7v160006IP4BookS2_EENS_4pairIPT_PT0_EES5_S5_S7_, symObjAddr: 0x4F50, symBinAddr: 0x100005640, symSize: 0x84 }
  - { offsetInCU: 0xA1C3, offset: 0xA1C3, size: 0x8, addend: 0x0, symName: __ZNSt3__19make_pairB7v160006IRPP4BookS3_EENS_4pairINS_18__unwrap_ref_decayIT_E4typeENS6_IT0_E4typeEEEOS7_OSA_, symObjAddr: 0x4FD4, symBinAddr: 0x1000056C4, symSize: 0x38 }
  - { offsetInCU: 0xA265, offset: 0xA265, size: 0x8, addend: 0x0, symName: __ZNSt3__118__debug_db_erase_cB7v160006INS_6vectorINS_12basic_stringIcNS_11char_traitsIcEENS_9allocatorIcEEEENS5_IS7_EEEEEEvPT_, symObjAddr: 0x52F0, symBinAddr: 0x1000059E0, symSize: 0x10 }
  - { offsetInCU: 0xA296, offset: 0xA296, size: 0x8, addend: 0x0, symName: __ZNSt3__119__debug_db_insert_cB7v160006INS_6vectorIP4BookNS_9allocatorIS3_EEEEEEvPT_, symObjAddr: 0x5418, symBinAddr: 0x100005B08, symSize: 0x10 }
  - { offsetInCU: 0xA2C7, offset: 0xA2C7, size: 0x8, addend: 0x0, symName: __ZNSt3__118__debug_db_erase_cB7v160006INS_6vectorIP4BookNS_9allocatorIS3_EEEEEEvPT_, symObjAddr: 0x56D4, symBinAddr: 0x100005DC4, symSize: 0x10 }
  - { offsetInCU: 0xA2F8, offset: 0xA2F8, size: 0x8, addend: 0x0, symName: __ZNSt3__119__allocate_at_leastB7v160006INS_9allocatorIP4BookEEEENS_19__allocation_resultINS_16allocator_traitsIT_E7pointerEEERS7_m, symObjAddr: 0x5F24, symBinAddr: 0x100006614, symSize: 0x40 }
  - { offsetInCU: 0xA33B, offset: 0xA33B, size: 0x8, addend: 0x0, symName: __ZNSt3__142__uninitialized_allocator_move_if_noexceptB7v160006INS_9allocatorIP4BookEENS_16reverse_iteratorIPS3_EES7_S3_vEET1_RT_T0_SB_S8_, symObjAddr: 0x6104, symBinAddr: 0x1000067F4, symSize: 0xE8 }
  - { offsetInCU: 0xA3B8, offset: 0xA3B8, size: 0x8, addend: 0x0, symName: __ZNSt3__14swapB7v160006IPP4BookEEvRT_S5_, symObjAddr: 0x6238, symBinAddr: 0x100006928, symSize: 0x3C }
  - { offsetInCU: 0xA409, offset: 0xA409, size: 0x8, addend: 0x0, symName: __ZNSt3__125__debug_db_invalidate_allB7v160006INS_6vectorIP4BookNS_9allocatorIS3_EEEEEEvPT_, symObjAddr: 0x6320, symBinAddr: 0x100006A10, symSize: 0x10 }
  - { offsetInCU: 0xA43A, offset: 0xA43A, size: 0x8, addend: 0x0, symName: __ZNSt3__1neB7v160006IPP4BookS3_EEbRKNS_16reverse_iteratorIT_EERKNS4_IT0_EE, symObjAddr: 0x6330, symBinAddr: 0x100006A20, symSize: 0x48 }
  - { offsetInCU: 0xA4AB, offset: 0xA4AB, size: 0x8, addend: 0x0, symName: __ZNSt3__114__construct_atB7v160006IP4BookJS2_EPS2_EEPT_S5_DpOT0_, symObjAddr: 0x6378, symBinAddr: 0x100006A68, symSize: 0x2C }
  - { offsetInCU: 0xA51B, offset: 0xA51B, size: 0x8, addend: 0x0, symName: __ZNSt3__112__to_addressB7v160006INS_16reverse_iteratorIPP4BookEEvEENS_5decayIDTclsr19__to_address_helperIT_EE6__callclsr3stdE7declvalIRKS7_EEEEE4typeES9_, symObjAddr: 0x63A4, symBinAddr: 0x100006A94, symSize: 0x24 }
  - { offsetInCU: 0xA551, offset: 0xA551, size: 0x8, addend: 0x0, symName: __ZNSt3__14moveB7v160006INS_16reverse_iteratorIPP4BookEES5_EET0_T_S7_S6_, symObjAddr: 0x6410, symBinAddr: 0x100006B00, symSize: 0x78 }
  - { offsetInCU: 0xA5D4, offset: 0xA5D4, size: 0x8, addend: 0x0, symName: __ZNSt3__16__moveB7v160006INS_17_ClassicAlgPolicyENS_16reverse_iteratorIPP4BookEES6_S6_EENS_4pairIT0_T2_EES8_T1_S9_, symObjAddr: 0x64F8, symBinAddr: 0x100006BE8, symSize: 0x64 }
  - { offsetInCU: 0xA640, offset: 0xA640, size: 0x8, addend: 0x0, symName: __ZNSt3__123__dispatch_copy_or_moveB7v160006INS_17_ClassicAlgPolicyENS_11__move_loopIS1_EENS_14__move_trivialENS_16reverse_iteratorIPP4BookEES9_S9_EENS_4pairIT2_T4_EESB_T3_SC_, symObjAddr: 0x655C, symBinAddr: 0x100006C4C, symSize: 0x7C }
  - { offsetInCU: 0xA6BE, offset: 0xA6BE, size: 0x8, addend: 0x0, symName: __ZNSt3__121__unwrap_and_dispatchB7v160006INS_10__overloadINS_11__move_loopINS_17_ClassicAlgPolicyEEENS_14__move_trivialEEENS_16reverse_iteratorIPP4BookEESB_SB_Li0EEENS_4pairIT0_T2_EESD_T1_SE_, symObjAddr: 0x65D8, symBinAddr: 0x100006CC8, symSize: 0x12C }
  - { offsetInCU: 0xA74E, offset: 0xA74E, size: 0x8, addend: 0x0, symName: __ZNSt3__114__unwrap_rangeB7v160006INS_16reverse_iteratorIPP4BookEES5_EENS_4pairIT0_S7_EET_S9_, symObjAddr: 0x6704, symBinAddr: 0x100006DF4, symSize: 0x84 }
  - { offsetInCU: 0xA847, offset: 0xA847, size: 0x8, addend: 0x0, symName: __ZNSt3__113__unwrap_iterB7v160006INS_16reverse_iteratorIPP4BookEENS_18__unwrap_iter_implIS5_Lb0EEELi0EEEDTclsrT0_8__unwrapclsr3stdE7declvalIT_EEEES9_, symObjAddr: 0x6828, symBinAddr: 0x100006F18, symSize: 0x44 }
  - { offsetInCU: 0xA88B, offset: 0xA88B, size: 0x8, addend: 0x0, symName: __ZNSt3__19make_pairB7v160006INS_16reverse_iteratorIPP4BookEES5_EENS_4pairINS_18__unwrap_ref_decayIT_E4typeENS7_IT0_E4typeEEEOS8_OSB_, symObjAddr: 0x686C, symBinAddr: 0x100006F5C, symSize: 0x38 }
  - { offsetInCU: 0xA8DA, offset: 0xA8DA, size: 0x8, addend: 0x0, symName: __ZNSt3__114__rewrap_rangeB7v160006INS_16reverse_iteratorIPP4BookEES5_EET_S6_T0_, symObjAddr: 0x68A4, symBinAddr: 0x100006F94, symSize: 0x5C }
  - { offsetInCU: 0xA926, offset: 0xA926, size: 0x8, addend: 0x0, symName: __ZNSt3__113__rewrap_iterB7v160006INS_16reverse_iteratorIPP4BookEES5_NS_18__unwrap_iter_implIS5_Lb0EEEEET_S8_T0_, symObjAddr: 0x6900, symBinAddr: 0x100006FF0, symSize: 0x88 }
  - { offsetInCU: 0xABEE, offset: 0xABEE, size: 0x8, addend: 0x0, symName: __ZSt28__throw_bad_array_new_lengthB7v160006v, symObjAddr: 0x1A94, symBinAddr: 0x100002184, symSize: 0x34 }
  - { offsetInCU: 0xB094, offset: 0xB094, size: 0x8, addend: 0x0, symName: __ZNSt3__16vectorINS_12basic_stringIcNS_11char_traitsIcEENS_9allocatorIcEEEENS4_IS6_EEE26__swap_out_circular_bufferERNS_14__split_bufferIS6_RS7_EE, symObjAddr: 0x12B0, symBinAddr: 0x1000019A0, symSize: 0x118 }
  - { offsetInCU: 0xB480, offset: 0xB480, size: 0x8, addend: 0x0, symName: __ZNSt3__16vectorIP4BookNS_9allocatorIS2_EEE26__swap_out_circular_bufferERNS_14__split_bufferIS2_RS4_EE, symObjAddr: 0x5BA8, symBinAddr: 0x100006298, symSize: 0x118 }
  - { offsetInCU: 0xD6B4, offset: 0xD6B4, size: 0x8, addend: 0x0, symName: _main, symObjAddr: 0x0, symBinAddr: 0x1000006F0, symSize: 0x4E4 }
  - { offsetInCU: 0xD70F, offset: 0xD70F, size: 0x8, addend: 0x0, symName: __ZNSt3__16vectorIP4BookNS_9allocatorIS2_EEEC1B7v160006Ev, symObjAddr: 0x4E4, symBinAddr: 0x100000BD4, symSize: 0x2C }
  - { offsetInCU: 0xD737, offset: 0xD737, size: 0x8, addend: 0x0, symName: __ZNSt3__16vectorIP4BookNS_9allocatorIS2_EEE9push_backB7v160006EOS2_, symObjAddr: 0x510, symBinAddr: 0x100000C00, symSize: 0x6C }
  - { offsetInCU: 0xD772, offset: 0xD772, size: 0x8, addend: 0x0, symName: __ZNSt3__112basic_stringIcNS_11char_traitsIcEENS_9allocatorIcEEEC1B7v160006IDnEEPKc, symObjAddr: 0x57C, symBinAddr: 0x100000C6C, symSize: 0x34 }
  - { offsetInCU: 0xD7AF, offset: 0xD7AF, size: 0x8, addend: 0x0, symName: __ZN4BookC1ERKNSt3__112basic_stringIcNS0_11char_traitsIcEENS0_9allocatorIcEEEEi, symObjAddr: 0x5B0, symBinAddr: 0x100000CA0, symSize: 0x3C }
  - { offsetInCU: 0xD871, offset: 0xD871, size: 0x8, addend: 0x0, symName: __ZN4UserC1ERKNSt3__112basic_stringIcNS0_11char_traitsIcEENS0_9allocatorIcEEEE, symObjAddr: 0x5F8, symBinAddr: 0x100000CE8, symSize: 0x34 }
  - { offsetInCU: 0xD8A8, offset: 0xD8A8, size: 0x8, addend: 0x0, symName: __ZN4User10borrowBookER4Book, symObjAddr: 0x62C, symBinAddr: 0x100000D1C, symSize: 0x124 }
  - { offsetInCU: 0xD8DB, offset: 0xD8DB, size: 0x8, addend: 0x0, symName: __ZNSt3__16vectorIP4BookNS_9allocatorIS2_EEEixB7v160006Em, symObjAddr: 0x750, symBinAddr: 0x100000E40, symSize: 0x24 }
  - { offsetInCU: 0xD911, offset: 0xD911, size: 0x8, addend: 0x0, symName: __ZN4User10returnBookER4Book, symObjAddr: 0x774, symBinAddr: 0x100000E64, symSize: 0xCC }
  - { offsetInCU: 0xD952, offset: 0xD952, size: 0x8, addend: 0x0, symName: __ZNKSt3__16vectorIP4BookNS_9allocatorIS2_EEE4sizeB7v160006Ev, symObjAddr: 0x840, symBinAddr: 0x100000F30, symSize: 0x28 }
  - { offsetInCU: 0xD977, offset: 0xD977, size: 0x8, addend: 0x0, symName: __ZN4BookD1Ev, symObjAddr: 0x868, symBinAddr: 0x100000F58, symSize: 0x2C }
  - { offsetInCU: 0xD9A2, offset: 0xD9A2, size: 0x8, addend: 0x0, symName: __ZN4UserD1Ev, symObjAddr: 0x894, symBinAddr: 0x100000F84, symSize: 0x2C }
  - { offsetInCU: 0xD9CD, offset: 0xD9CD, size: 0x8, addend: 0x0, symName: __ZNSt3__16vectorIP4BookNS_9allocatorIS2_EEED1B7v160006Ev, symObjAddr: 0x8C0, symBinAddr: 0x100000FB0, symSize: 0x2C }
  - { offsetInCU: 0xD9F6, offset: 0xD9F6, size: 0x8, addend: 0x0, symName: __ZN4BookC2ERKNSt3__112basic_stringIcNS0_11char_traitsIcEENS0_9allocatorIcEEEEi, symObjAddr: 0x8EC, symBinAddr: 0x100000FDC, symSize: 0x7C }
  - { offsetInCU: 0xDA3B, offset: 0xDA3B, size: 0x8, addend: 0x0, symName: __ZNSt3__16vectorINS_12basic_stringIcNS_11char_traitsIcEENS_9allocatorIcEEEENS4_IS6_EEEC1B7v160006Ev, symObjAddr: 0x968, symBinAddr: 0x100001058, symSize: 0x2C }
  - { offsetInCU: 0xDA64, offset: 0xDA64, size: 0x8, addend: 0x0, symName: __ZNSt3__16vectorINS_12basic_stringIcNS_11char_traitsIcEENS_9allocatorIcEEEENS4_IS6_EEEC2B7v160006Ev, symObjAddr: 0x994, symBinAddr: 0x100001084, symSize: 0x4C }
  - { offsetInCU: 0xDA97, offset: 0xDA97, size: 0x8, addend: 0x0, symName: __ZNSt3__117__compressed_pairIPNS_12basic_stringIcNS_11char_traitsIcEENS_9allocatorIcEEEENS4_IS6_EEEC1B7v160006IDnNS_18__default_init_tagEEEOT_OT0_, symObjAddr: 0x9E0, symBinAddr: 0x1000010D0, symSize: 0x3C }
  - { offsetInCU: 0xDAEE, offset: 0xDAEE, size: 0x8, addend: 0x0, symName: __ZNSt3__117__compressed_pairIPNS_12basic_stringIcNS_11char_traitsIcEENS_9allocatorIcEEEENS4_IS6_EEEC2B7v160006IDnNS_18__default_init_tagEEEOT_OT0_, symObjAddr: 0xA2C, symBinAddr: 0x10000111C, symSize: 0x40 }
  - { offsetInCU: 0xDB45, offset: 0xDB45, size: 0x8, addend: 0x0, symName: __ZNSt3__122__compressed_pair_elemIPNS_12basic_stringIcNS_11char_traitsIcEENS_9allocatorIcEEEELi0ELb0EEC2B7v160006IDnvEEOT_, symObjAddr: 0xA6C, symBinAddr: 0x10000115C, symSize: 0x1C }
  - { offsetInCU: 0xDB86, offset: 0xDB86, size: 0x8, addend: 0x0, symName: __ZNSt3__122__compressed_pair_elemINS_9allocatorINS_12basic_stringIcNS_11char_traitsIcEENS1_IcEEEEEELi1ELb1EEC2B7v160006ENS_18__default_init_tagE, symObjAddr: 0xA88, symBinAddr: 0x100001178, symSize: 0x2C }
  - { offsetInCU: 0xDBBA, offset: 0xDBBA, size: 0x8, addend: 0x0, symName: __ZNSt3__19allocatorINS_12basic_stringIcNS_11char_traitsIcEENS0_IcEEEEEC2B7v160006Ev, symObjAddr: 0xAB4, symBinAddr: 0x1000011A4, symSize: 0x2C }
  - { offsetInCU: 0xDBE3, offset: 0xDBE3, size: 0x8, addend: 0x0, symName: __ZNSt3__116__non_trivial_ifILb1ENS_9allocatorINS_12basic_stringIcNS_11char_traitsIcEENS1_IcEEEEEEEC2B7v160006Ev, symObjAddr: 0xAE0, symBinAddr: 0x1000011D0, symSize: 0x14 }
  - { offsetInCU: 0xDC0C, offset: 0xDC0C, size: 0x8, addend: 0x0, symName: __ZN4UserC2ERKNSt3__112basic_stringIcNS0_11char_traitsIcEENS0_9allocatorIcEEEE, symObjAddr: 0xAF4, symBinAddr: 0x1000011E4, symSize: 0x70 }
  - { offsetInCU: 0xDC43, offset: 0xDC43, size: 0x8, addend: 0x0, symName: __ZNK4Book11isAvailableEv, symObjAddr: 0xB64, symBinAddr: 0x100001254, symSize: 0x24 }
  - { offsetInCU: 0xDC68, offset: 0xDC68, size: 0x8, addend: 0x0, symName: __ZN4Book10borrowBookERKNSt3__112basic_stringIcNS0_11char_traitsIcEENS0_9allocatorIcEEEE, symObjAddr: 0xB88, symBinAddr: 0x100001278, symSize: 0xC8 }
  - { offsetInCU: 0xDC9B, offset: 0xDC9B, size: 0x8, addend: 0x0, symName: __ZNK4Book8getTitleEv, symObjAddr: 0xCE4, symBinAddr: 0x1000013D4, symSize: 0x38 }
  - { offsetInCU: 0xDCC0, offset: 0xDCC0, size: 0x8, addend: 0x0, symName: __ZNSt3__113basic_ostreamIcNS_11char_traitsIcEEElsB7v160006EPFRS3_S4_E, symObjAddr: 0xD1C, symBinAddr: 0x10000140C, symSize: 0x2C }
  - { offsetInCU: 0xDCF2, offset: 0xDCF2, size: 0x8, addend: 0x0, symName: __ZNSt3__16vectorINS_12basic_stringIcNS_11char_traitsIcEENS_9allocatorIcEEEENS4_IS6_EEE9push_backB7v160006ERKS6_, symObjAddr: 0xDA0, symBinAddr: 0x100001490, symSize: 0x6C }
  - { offsetInCU: 0xDD28, offset: 0xDD28, size: 0x8, addend: 0x0, symName: __ZNSt3__16vectorINS_12basic_stringIcNS_11char_traitsIcEENS_9allocatorIcEEEENS4_IS6_EEE9__end_capB7v160006Ev, symObjAddr: 0xE0C, symBinAddr: 0x1000014FC, symSize: 0x28 }
  - { offsetInCU: 0xDD4D, offset: 0xDD4D, size: 0x8, addend: 0x0, symName: __ZNSt3__16vectorINS_12basic_stringIcNS_11char_traitsIcEENS_9allocatorIcEEEENS4_IS6_EEE22__construct_one_at_endB7v160006IJRKS6_EEEvDpOT_, symObjAddr: 0xE34, symBinAddr: 0x100001524, symSize: 0x98 }
  - { offsetInCU: 0xDD9A, offset: 0xDD9A, size: 0x8, addend: 0x0, symName: __ZNSt3__16vectorINS_12basic_stringIcNS_11char_traitsIcEENS_9allocatorIcEEEENS4_IS6_EEE21__push_back_slow_pathIRKS6_EEvOT_, symObjAddr: 0xECC, symBinAddr: 0x1000015BC, symSize: 0xE0 }
  - { offsetInCU: 0xDDF7, offset: 0xDDF7, size: 0x8, addend: 0x0, symName: __ZNSt3__117__compressed_pairIPNS_12basic_stringIcNS_11char_traitsIcEENS_9allocatorIcEEEENS4_IS6_EEE5firstB7v160006Ev, symObjAddr: 0xFAC, symBinAddr: 0x10000169C, symSize: 0x24 }
  - { offsetInCU: 0xDE1C, offset: 0xDE1C, size: 0x8, addend: 0x0, symName: __ZNSt3__122__compressed_pair_elemIPNS_12basic_stringIcNS_11char_traitsIcEENS_9allocatorIcEEEELi0ELb0EE5__getB7v160006Ev, symObjAddr: 0xFD0, symBinAddr: 0x1000016C0, symSize: 0x14 }
  - { offsetInCU: 0xDE5A, offset: 0xDE5A, size: 0x8, addend: 0x0, symName: __ZNSt3__16vectorINS_12basic_stringIcNS_11char_traitsIcEENS_9allocatorIcEEEENS4_IS6_EEE21_ConstructTransactionC1B7v160006ERS8_m, symObjAddr: 0xFE4, symBinAddr: 0x1000016D4, symSize: 0x3C }
  - { offsetInCU: 0xDEA1, offset: 0xDEA1, size: 0x8, addend: 0x0, symName: __ZNSt3__116allocator_traitsINS_9allocatorINS_12basic_stringIcNS_11char_traitsIcEENS1_IcEEEEEEE9constructB7v160006IS6_JRKS6_EvEEvRS7_PT_DpOT0_, symObjAddr: 0x1020, symBinAddr: 0x100001710, symSize: 0x34 }
  - { offsetInCU: 0xDEF8, offset: 0xDEF8, size: 0x8, addend: 0x0, symName: __ZNSt3__16vectorINS_12basic_stringIcNS_11char_traitsIcEENS_9allocatorIcEEEENS4_IS6_EEE7__allocB7v160006Ev, symObjAddr: 0x1054, symBinAddr: 0x100001744, symSize: 0x28 }
  - { offsetInCU: 0xDF1D, offset: 0xDF1D, size: 0x8, addend: 0x0, symName: __ZNSt3__16vectorINS_12basic_stringIcNS_11char_traitsIcEENS_9allocatorIcEEEENS4_IS6_EEE21_ConstructTransactionD1B7v160006Ev, symObjAddr: 0x1090, symBinAddr: 0x100001780, symSize: 0x2C }
  - { offsetInCU: 0xDF46, offset: 0xDF46, size: 0x8, addend: 0x0, symName: __ZNSt3__16vectorINS_12basic_stringIcNS_11char_traitsIcEENS_9allocatorIcEEEENS4_IS6_EEE21_ConstructTransactionC2B7v160006ERS8_m, symObjAddr: 0x10BC, symBinAddr: 0x1000017AC, symSize: 0x4C }
  - { offsetInCU: 0xDF8D, offset: 0xDF8D, size: 0x8, addend: 0x0, symName: __ZNSt3__19allocatorINS_12basic_stringIcNS_11char_traitsIcEENS0_IcEEEEE9constructB7v160006IS5_JRKS5_EEEvPT_DpOT0_, symObjAddr: 0x1108, symBinAddr: 0x1000017F8, symSize: 0x30 }
  - { offsetInCU: 0xDFE2, offset: 0xDFE2, size: 0x8, addend: 0x0, symName: __ZNSt3__117__compressed_pairIPNS_12basic_stringIcNS_11char_traitsIcEENS_9allocatorIcEEEENS4_IS6_EEE6secondB7v160006Ev, symObjAddr: 0x1138, symBinAddr: 0x100001828, symSize: 0x24 }
  - { offsetInCU: 0xE007, offset: 0xE007, size: 0x8, addend: 0x0, symName: __ZNSt3__122__compressed_pair_elemINS_9allocatorINS_12basic_stringIcNS_11char_traitsIcEENS1_IcEEEEEELi1ELb1EE5__getB7v160006Ev, symObjAddr: 0x115C, symBinAddr: 0x10000184C, symSize: 0x14 }
  - { offsetInCU: 0xE02C, offset: 0xE02C, size: 0x8, addend: 0x0, symName: __ZNSt3__16vectorINS_12basic_stringIcNS_11char_traitsIcEENS_9allocatorIcEEEENS4_IS6_EEE21_ConstructTransactionD2B7v160006Ev, symObjAddr: 0x1170, symBinAddr: 0x100001860, symSize: 0x20 }
  - { offsetInCU: 0xE054, offset: 0xE054, size: 0x8, addend: 0x0, symName: __ZNKSt3__16vectorINS_12basic_stringIcNS_11char_traitsIcEENS_9allocatorIcEEEENS4_IS6_EEE11__recommendB7v160006Em, symObjAddr: 0x1190, symBinAddr: 0x100001880, symSize: 0xB4 }
  - { offsetInCU: 0xE0A8, offset: 0xE0A8, size: 0x8, addend: 0x0, symName: __ZNKSt3__16vectorINS_12basic_stringIcNS_11char_traitsIcEENS_9allocatorIcEEEENS4_IS6_EEE4sizeB7v160006Ev, symObjAddr: 0x1244, symBinAddr: 0x100001934, symSize: 0x28 }
  - { offsetInCU: 0xE0CD, offset: 0xE0CD, size: 0x8, addend: 0x0, symName: __ZNSt3__114__split_bufferINS_12basic_stringIcNS_11char_traitsIcEENS_9allocatorIcEEEERNS4_IS6_EEEC1EmmS8_, symObjAddr: 0x126C, symBinAddr: 0x10000195C, symSize: 0x44 }
  - { offsetInCU: 0xE122, offset: 0xE122, size: 0x8, addend: 0x0, symName: __ZNSt3__114__split_bufferINS_12basic_stringIcNS_11char_traitsIcEENS_9allocatorIcEEEERNS4_IS6_EEED1Ev, symObjAddr: 0x13C8, symBinAddr: 0x100001AB8, symSize: 0x2C }
  - { offsetInCU: 0xE14C, offset: 0xE14C, size: 0x8, addend: 0x0, symName: __ZNKSt3__16vectorINS_12basic_stringIcNS_11char_traitsIcEENS_9allocatorIcEEEENS4_IS6_EEE8max_sizeEv, symObjAddr: 0x13F4, symBinAddr: 0x100001AE4, symSize: 0x74 }
  - { offsetInCU: 0xE173, offset: 0xE173, size: 0x8, addend: 0x0, symName: __ZNKSt3__16vectorINS_12basic_stringIcNS_11char_traitsIcEENS_9allocatorIcEEEENS4_IS6_EEE20__throw_length_errorB7v160006Ev, symObjAddr: 0x1468, symBinAddr: 0x100001B58, symSize: 0x1C }
  - { offsetInCU: 0xE198, offset: 0xE198, size: 0x8, addend: 0x0, symName: __ZNKSt3__16vectorINS_12basic_stringIcNS_11char_traitsIcEENS_9allocatorIcEEEENS4_IS6_EEE8capacityB7v160006Ev, symObjAddr: 0x1484, symBinAddr: 0x100001B74, symSize: 0x40 }
  - { offsetInCU: 0xE1C7, offset: 0xE1C7, size: 0x8, addend: 0x0, symName: __ZNSt3__116allocator_traitsINS_9allocatorINS_12basic_stringIcNS_11char_traitsIcEENS1_IcEEEEEEE8max_sizeB7v160006IS7_vEEmRKS7_, symObjAddr: 0x151C, symBinAddr: 0x100001C0C, symSize: 0x24 }
  - { offsetInCU: 0xE1F5, offset: 0xE1F5, size: 0x8, addend: 0x0, symName: __ZNKSt3__16vectorINS_12basic_stringIcNS_11char_traitsIcEENS_9allocatorIcEEEENS4_IS6_EEE7__allocB7v160006Ev, symObjAddr: 0x1540, symBinAddr: 0x100001C30, symSize: 0x28 }
  - { offsetInCU: 0xE21A, offset: 0xE21A, size: 0x8, addend: 0x0, symName: __ZNSt3__114numeric_limitsIlE3maxB7v160006Ev, symObjAddr: 0x1568, symBinAddr: 0x100001C58, symSize: 0x14 }
  - { offsetInCU: 0xE242, offset: 0xE242, size: 0x8, addend: 0x0, symName: __ZNKSt3__16__lessImmEclB7v160006ERKmS3_, symObjAddr: 0x15D0, symBinAddr: 0x100001CC0, symSize: 0x34 }
  - { offsetInCU: 0xE283, offset: 0xE283, size: 0x8, addend: 0x0, symName: __ZNKSt3__19allocatorINS_12basic_stringIcNS_11char_traitsIcEENS0_IcEEEEE8max_sizeB7v160006Ev, symObjAddr: 0x1604, symBinAddr: 0x100001CF4, symSize: 0x18 }
  - { offsetInCU: 0xE2A8, offset: 0xE2A8, size: 0x8, addend: 0x0, symName: __ZNKSt3__117__compressed_pairIPNS_12basic_stringIcNS_11char_traitsIcEENS_9allocatorIcEEEENS4_IS6_EEE6secondB7v160006Ev, symObjAddr: 0x161C, symBinAddr: 0x100001D0C, symSize: 0x24 }
  - { offsetInCU: 0xE2CD, offset: 0xE2CD, size: 0x8, addend: 0x0, symName: __ZNKSt3__122__compressed_pair_elemINS_9allocatorINS_12basic_stringIcNS_11char_traitsIcEENS1_IcEEEEEELi1ELb1EE5__getB7v160006Ev, symObjAddr: 0x1640, symBinAddr: 0x100001D30, symSize: 0x14 }
  - { offsetInCU: 0xE2F2, offset: 0xE2F2, size: 0x8, addend: 0x0, symName: __ZNSt3__123__libcpp_numeric_limitsIlLb1EE3maxB7v160006Ev, symObjAddr: 0x1654, symBinAddr: 0x100001D44, symSize: 0x8 }
  - { offsetInCU: 0xE306, offset: 0xE306, size: 0x8, addend: 0x0, symName: __ZNSt12length_errorC1B7v160006EPKc, symObjAddr: 0x16C0, symBinAddr: 0x100001DB0, symSize: 0x34 }
  - { offsetInCU: 0xE33D, offset: 0xE33D, size: 0x8, addend: 0x0, symName: __ZNSt12length_errorC2B7v160006EPKc, symObjAddr: 0x16F4, symBinAddr: 0x100001DE4, symSize: 0x4C }
  - { offsetInCU: 0xE374, offset: 0xE374, size: 0x8, addend: 0x0, symName: __ZNKSt3__16vectorINS_12basic_stringIcNS_11char_traitsIcEENS_9allocatorIcEEEENS4_IS6_EEE9__end_capB7v160006Ev, symObjAddr: 0x1740, symBinAddr: 0x100001E30, symSize: 0x28 }
  - { offsetInCU: 0xE399, offset: 0xE399, size: 0x8, addend: 0x0, symName: __ZNKSt3__117__compressed_pairIPNS_12basic_stringIcNS_11char_traitsIcEENS_9allocatorIcEEEENS4_IS6_EEE5firstB7v160006Ev, symObjAddr: 0x1768, symBinAddr: 0x100001E58, symSize: 0x24 }
  - { offsetInCU: 0xE3BE, offset: 0xE3BE, size: 0x8, addend: 0x0, symName: __ZNKSt3__122__compressed_pair_elemIPNS_12basic_stringIcNS_11char_traitsIcEENS_9allocatorIcEEEELi0ELb0EE5__getB7v160006Ev, symObjAddr: 0x178C, symBinAddr: 0x100001E7C, symSize: 0x14 }
  - { offsetInCU: 0xE3E3, offset: 0xE3E3, size: 0x8, addend: 0x0, symName: __ZNSt3__114__split_bufferINS_12basic_stringIcNS_11char_traitsIcEENS_9allocatorIcEEEERNS4_IS6_EEEC2EmmS8_, symObjAddr: 0x17F4, symBinAddr: 0x100001EE4, symSize: 0xE0 }
  - { offsetInCU: 0xE456, offset: 0xE456, size: 0x8, addend: 0x0, symName: __ZNSt3__117__compressed_pairIPNS_12basic_stringIcNS_11char_traitsIcEENS_9allocatorIcEEEERNS4_IS6_EEEC1B7v160006IDnS9_EEOT_OT0_, symObjAddr: 0x18D4, symBinAddr: 0x100001FC4, symSize: 0x3C }
  - { offsetInCU: 0xE4AD, offset: 0xE4AD, size: 0x8, addend: 0x0, symName: __ZNSt3__114__split_bufferINS_12basic_stringIcNS_11char_traitsIcEENS_9allocatorIcEEEERNS4_IS6_EEE7__allocB7v160006Ev, symObjAddr: 0x1950, symBinAddr: 0x100002040, symSize: 0x28 }
  - { offsetInCU: 0xE4D2, offset: 0xE4D2, size: 0x8, addend: 0x0, symName: __ZNSt3__114__split_bufferINS_12basic_stringIcNS_11char_traitsIcEENS_9allocatorIcEEEERNS4_IS6_EEE9__end_capB7v160006Ev, symObjAddr: 0x1978, symBinAddr: 0x100002068, symSize: 0x28 }
  - { offsetInCU: 0xE4F7, offset: 0xE4F7, size: 0x8, addend: 0x0, symName: __ZNSt3__117__compressed_pairIPNS_12basic_stringIcNS_11char_traitsIcEENS_9allocatorIcEEEERNS4_IS6_EEEC2B7v160006IDnS9_EEOT_OT0_, symObjAddr: 0x19A0, symBinAddr: 0x100002090, symSize: 0x48 }
  - { offsetInCU: 0xE54E, offset: 0xE54E, size: 0x8, addend: 0x0, symName: __ZNSt3__122__compressed_pair_elemIRNS_9allocatorINS_12basic_stringIcNS_11char_traitsIcEENS1_IcEEEEEELi1ELb0EEC2B7v160006IS8_vEEOT_, symObjAddr: 0x19E8, symBinAddr: 0x1000020D8, symSize: 0x20 }
  - { offsetInCU: 0xE58F, offset: 0xE58F, size: 0x8, addend: 0x0, symName: __ZNSt3__19allocatorINS_12basic_stringIcNS_11char_traitsIcEENS0_IcEEEEE8allocateB7v160006Em, symObjAddr: 0x1A08, symBinAddr: 0x1000020F8, symSize: 0x8C }
  - { offsetInCU: 0xE5C2, offset: 0xE5C2, size: 0x8, addend: 0x0, symName: __ZNSt3__117__compressed_pairIPNS_12basic_stringIcNS_11char_traitsIcEENS_9allocatorIcEEEERNS4_IS6_EEE6secondB7v160006Ev, symObjAddr: 0x1B20, symBinAddr: 0x100002210, symSize: 0x28 }
  - { offsetInCU: 0xE5E7, offset: 0xE5E7, size: 0x8, addend: 0x0, symName: __ZNSt3__122__compressed_pair_elemIRNS_9allocatorINS_12basic_stringIcNS_11char_traitsIcEENS1_IcEEEEEELi1ELb0EE5__getB7v160006Ev, symObjAddr: 0x1B48, symBinAddr: 0x100002238, symSize: 0x18 }
  - { offsetInCU: 0xE60C, offset: 0xE60C, size: 0x8, addend: 0x0, symName: __ZNSt3__117__compressed_pairIPNS_12basic_stringIcNS_11char_traitsIcEENS_9allocatorIcEEEERNS4_IS6_EEE5firstB7v160006Ev, symObjAddr: 0x1B60, symBinAddr: 0x100002250, symSize: 0x24 }
  - { offsetInCU: 0xE631, offset: 0xE631, size: 0x8, addend: 0x0, symName: __ZNKSt3__16vectorINS_12basic_stringIcNS_11char_traitsIcEENS_9allocatorIcEEEENS4_IS6_EEE17__annotate_deleteB7v160006Ev, symObjAddr: 0x1B84, symBinAddr: 0x100002274, symSize: 0xD4 }
  - { offsetInCU: 0xE656, offset: 0xE656, size: 0x8, addend: 0x0, symName: __ZNSt3__116reverse_iteratorIPNS_12basic_stringIcNS_11char_traitsIcEENS_9allocatorIcEEEEEC1B7v160006ES7_, symObjAddr: 0x1D8C, symBinAddr: 0x10000247C, symSize: 0x34 }
  - { offsetInCU: 0xE68D, offset: 0xE68D, size: 0x8, addend: 0x0, symName: __ZNKSt3__116reverse_iteratorIPNS_12basic_stringIcNS_11char_traitsIcEENS_9allocatorIcEEEEE4baseB7v160006Ev, symObjAddr: 0x1DC0, symBinAddr: 0x1000024B0, symSize: 0x18 }
  - { offsetInCU: 0xE6B2, offset: 0xE6B2, size: 0x8, addend: 0x0, symName: __ZNKSt3__16vectorINS_12basic_stringIcNS_11char_traitsIcEENS_9allocatorIcEEEENS4_IS6_EEE14__annotate_newB7v160006Em, symObjAddr: 0x1E14, symBinAddr: 0x100002504, symSize: 0xC8 }
  - { offsetInCU: 0xE6E6, offset: 0xE6E6, size: 0x8, addend: 0x0, symName: __ZNKSt3__16vectorINS_12basic_stringIcNS_11char_traitsIcEENS_9allocatorIcEEEENS4_IS6_EEE31__annotate_contiguous_containerB7v160006EPKvSA_SA_SA_, symObjAddr: 0x1EEC, symBinAddr: 0x1000025DC, symSize: 0x20 }
  - { offsetInCU: 0xE737, offset: 0xE737, size: 0x8, addend: 0x0, symName: __ZNKSt3__16vectorINS_12basic_stringIcNS_11char_traitsIcEENS_9allocatorIcEEEENS4_IS6_EEE4dataB7v160006Ev, symObjAddr: 0x1F0C, symBinAddr: 0x1000025FC, symSize: 0x28 }
  - { offsetInCU: 0xE75C, offset: 0xE75C, size: 0x8, addend: 0x0, symName: __ZNSt3__129_AllocatorDestroyRangeReverseINS_9allocatorINS_12basic_stringIcNS_11char_traitsIcEENS1_IcEEEEEENS_16reverse_iteratorIPS6_EEEC1B7v160006ERS7_RSA_SD_, symObjAddr: 0x1F80, symBinAddr: 0x100002670, symSize: 0x44 }
  - { offsetInCU: 0xE7B2, offset: 0xE7B2, size: 0x8, addend: 0x0, symName: __ZNKSt3__116reverse_iteratorIPNS_12basic_stringIcNS_11char_traitsIcEENS_9allocatorIcEEEEEdeB7v160006Ev, symObjAddr: 0x2030, symBinAddr: 0x100002720, symSize: 0x28 }
  - { offsetInCU: 0xE7E5, offset: 0xE7E5, size: 0x8, addend: 0x0, symName: __ZNSt3__116reverse_iteratorIPNS_12basic_stringIcNS_11char_traitsIcEENS_9allocatorIcEEEEEppB7v160006Ev, symObjAddr: 0x2058, symBinAddr: 0x100002748, symSize: 0x20 }
  - { offsetInCU: 0xE80A, offset: 0xE80A, size: 0x8, addend: 0x0, symName: __ZNSt3__128__exception_guard_exceptionsINS_29_AllocatorDestroyRangeReverseINS_9allocatorINS_12basic_stringIcNS_11char_traitsIcEENS2_IcEEEEEENS_16reverse_iteratorIPS7_EEEEE10__completeB7v160006Ev, symObjAddr: 0x2078, symBinAddr: 0x100002768, symSize: 0x1C }
  - { offsetInCU: 0xE82F, offset: 0xE82F, size: 0x8, addend: 0x0, symName: __ZNSt3__128__exception_guard_exceptionsINS_29_AllocatorDestroyRangeReverseINS_9allocatorINS_12basic_stringIcNS_11char_traitsIcEENS2_IcEEEEEENS_16reverse_iteratorIPS7_EEEEED1B7v160006Ev, symObjAddr: 0x2094, symBinAddr: 0x100002784, symSize: 0x2C }
  - { offsetInCU: 0xE858, offset: 0xE858, size: 0x8, addend: 0x0, symName: __ZNSt3__128__exception_guard_exceptionsINS_29_AllocatorDestroyRangeReverseINS_9allocatorINS_12basic_stringIcNS_11char_traitsIcEENS2_IcEEEEEENS_16reverse_iteratorIPS7_EEEEEC1B7v160006ESC_, symObjAddr: 0x20C0, symBinAddr: 0x1000027B0, symSize: 0x34 }
  - { offsetInCU: 0xE890, offset: 0xE890, size: 0x8, addend: 0x0, symName: __ZNSt3__128__exception_guard_exceptionsINS_29_AllocatorDestroyRangeReverseINS_9allocatorINS_12basic_stringIcNS_11char_traitsIcEENS2_IcEEEEEENS_16reverse_iteratorIPS7_EEEEEC2B7v160006ESC_, symObjAddr: 0x20F4, symBinAddr: 0x1000027E4, symSize: 0x30 }
  - { offsetInCU: 0xE8C8, offset: 0xE8C8, size: 0x8, addend: 0x0, symName: __ZNSt3__129_AllocatorDestroyRangeReverseINS_9allocatorINS_12basic_stringIcNS_11char_traitsIcEENS1_IcEEEEEENS_16reverse_iteratorIPS6_EEEC2B7v160006ERS7_RSA_SD_, symObjAddr: 0x2124, symBinAddr: 0x100002814, symSize: 0x38 }
  - { offsetInCU: 0xE923, offset: 0xE923, size: 0x8, addend: 0x0, symName: __ZNSt3__119__to_address_helperINS_16reverse_iteratorIPNS_12basic_stringIcNS_11char_traitsIcEENS_9allocatorIcEEEEEEvE6__callB7v160006ERKS9_, symObjAddr: 0x215C, symBinAddr: 0x10000284C, symSize: 0x4C }
  - { offsetInCU: 0xE946, offset: 0xE946, size: 0x8, addend: 0x0, symName: __ZNKSt3__116reverse_iteratorIPNS_12basic_stringIcNS_11char_traitsIcEENS_9allocatorIcEEEEEptB7v160006Ev, symObjAddr: 0x21A8, symBinAddr: 0x100002898, symSize: 0x24 }
  - { offsetInCU: 0xE96B, offset: 0xE96B, size: 0x8, addend: 0x0, symName: __ZNSt3__128__exception_guard_exceptionsINS_29_AllocatorDestroyRangeReverseINS_9allocatorINS_12basic_stringIcNS_11char_traitsIcEENS2_IcEEEEEENS_16reverse_iteratorIPS7_EEEEED2B7v160006Ev, symObjAddr: 0x21CC, symBinAddr: 0x1000028BC, symSize: 0x48 }
  - { offsetInCU: 0xE994, offset: 0xE994, size: 0x8, addend: 0x0, symName: __ZNKSt3__129_AllocatorDestroyRangeReverseINS_9allocatorINS_12basic_stringIcNS_11char_traitsIcEENS1_IcEEEEEENS_16reverse_iteratorIPS6_EEEclB7v160006Ev, symObjAddr: 0x2214, symBinAddr: 0x100002904, symSize: 0xB4 }
  - { offsetInCU: 0xE9BA, offset: 0xE9BA, size: 0x8, addend: 0x0, symName: __ZNSt3__116reverse_iteratorINS0_IPNS_12basic_stringIcNS_11char_traitsIcEENS_9allocatorIcEEEEEEEC1B7v160006ES8_, symObjAddr: 0x2338, symBinAddr: 0x100002A28, symSize: 0x3C }
  - { offsetInCU: 0xE9F1, offset: 0xE9F1, size: 0x8, addend: 0x0, symName: __ZNSt3__116allocator_traitsINS_9allocatorINS_12basic_stringIcNS_11char_traitsIcEENS1_IcEEEEEEE7destroyB7v160006IS6_vEEvRS7_PT_, symObjAddr: 0x23D4, symBinAddr: 0x100002AC4, symSize: 0x2C }
  - { offsetInCU: 0xEA2E, offset: 0xEA2E, size: 0x8, addend: 0x0, symName: __ZNSt3__116reverse_iteratorINS0_IPNS_12basic_stringIcNS_11char_traitsIcEENS_9allocatorIcEEEEEEEppB7v160006Ev, symObjAddr: 0x2424, symBinAddr: 0x100002B14, symSize: 0x30 }
  - { offsetInCU: 0xEA53, offset: 0xEA53, size: 0x8, addend: 0x0, symName: __ZNKSt3__116reverse_iteratorINS0_IPNS_12basic_stringIcNS_11char_traitsIcEENS_9allocatorIcEEEEEEE4baseB7v160006Ev, symObjAddr: 0x2454, symBinAddr: 0x100002B44, symSize: 0x24 }
  - { offsetInCU: 0xEA78, offset: 0xEA78, size: 0x8, addend: 0x0, symName: __ZNSt3__19allocatorINS_12basic_stringIcNS_11char_traitsIcEENS0_IcEEEEE7destroyB7v160006EPS5_, symObjAddr: 0x2478, symBinAddr: 0x100002B68, symSize: 0x28 }
  - { offsetInCU: 0xEAB0, offset: 0xEAB0, size: 0x8, addend: 0x0, symName: __ZNSt3__119__to_address_helperINS_16reverse_iteratorINS1_IPNS_12basic_stringIcNS_11char_traitsIcEENS_9allocatorIcEEEEEEEEvE6__callB7v160006ERKSA_, symObjAddr: 0x24A0, symBinAddr: 0x100002B90, symSize: 0x4C }
  - { offsetInCU: 0xEAD3, offset: 0xEAD3, size: 0x8, addend: 0x0, symName: __ZNKSt3__116reverse_iteratorINS0_IPNS_12basic_stringIcNS_11char_traitsIcEENS_9allocatorIcEEEEEEEptB7v160006Ev, symObjAddr: 0x24EC, symBinAddr: 0x100002BDC, symSize: 0x24 }
  - { offsetInCU: 0xEAF8, offset: 0xEAF8, size: 0x8, addend: 0x0, symName: __ZNKSt3__116reverse_iteratorINS0_IPNS_12basic_stringIcNS_11char_traitsIcEENS_9allocatorIcEEEEEEEdeB7v160006Ev, symObjAddr: 0x2510, symBinAddr: 0x100002C00, symSize: 0x34 }
  - { offsetInCU: 0xEB2B, offset: 0xEB2B, size: 0x8, addend: 0x0, symName: __ZNSt3__116reverse_iteratorIPNS_12basic_stringIcNS_11char_traitsIcEENS_9allocatorIcEEEEEmmB7v160006Ev, symObjAddr: 0x2544, symBinAddr: 0x100002C34, symSize: 0x20 }
  - { offsetInCU: 0xEB50, offset: 0xEB50, size: 0x8, addend: 0x0, symName: __ZNSt3__116reverse_iteratorINS0_IPNS_12basic_stringIcNS_11char_traitsIcEENS_9allocatorIcEEEEEEEC2B7v160006ES8_, symObjAddr: 0x2564, symBinAddr: 0x100002C54, symSize: 0x2C }
  - { offsetInCU: 0xEB87, offset: 0xEB87, size: 0x8, addend: 0x0, symName: __ZNSt3__116reverse_iteratorIPNS_12basic_stringIcNS_11char_traitsIcEENS_9allocatorIcEEEEEC2B7v160006ES7_, symObjAddr: 0x2590, symBinAddr: 0x100002C80, symSize: 0x28 }
  - { offsetInCU: 0xEBBE, offset: 0xEBBE, size: 0x8, addend: 0x0, symName: __ZNSt3__114__split_bufferINS_12basic_stringIcNS_11char_traitsIcEENS_9allocatorIcEEEERNS4_IS6_EEED2Ev, symObjAddr: 0x25B8, symBinAddr: 0x100002CA8, symSize: 0x80 }
  - { offsetInCU: 0xEBE9, offset: 0xEBE9, size: 0x8, addend: 0x0, symName: __ZNSt3__114__split_bufferINS_12basic_stringIcNS_11char_traitsIcEENS_9allocatorIcEEEERNS4_IS6_EEE5clearB7v160006Ev, symObjAddr: 0x2638, symBinAddr: 0x100002D28, symSize: 0x28 }
  - { offsetInCU: 0xEC0E, offset: 0xEC0E, size: 0x8, addend: 0x0, symName: __ZNSt3__116allocator_traitsINS_9allocatorINS_12basic_stringIcNS_11char_traitsIcEENS1_IcEEEEEEE10deallocateB7v160006ERS7_PS6_m, symObjAddr: 0x2660, symBinAddr: 0x100002D50, symSize: 0x34 }
  - { offsetInCU: 0xEC50, offset: 0xEC50, size: 0x8, addend: 0x0, symName: __ZNKSt3__114__split_bufferINS_12basic_stringIcNS_11char_traitsIcEENS_9allocatorIcEEEERNS4_IS6_EEE8capacityB7v160006Ev, symObjAddr: 0x2694, symBinAddr: 0x100002D84, symSize: 0x40 }
  - { offsetInCU: 0xEC75, offset: 0xEC75, size: 0x8, addend: 0x0, symName: __ZNSt3__114__split_bufferINS_12basic_stringIcNS_11char_traitsIcEENS_9allocatorIcEEEERNS4_IS6_EEE17__destruct_at_endB7v160006EPS6_, symObjAddr: 0x26D4, symBinAddr: 0x100002DC4, symSize: 0x2C }
  - { offsetInCU: 0xECA7, offset: 0xECA7, size: 0x8, addend: 0x0, symName: __ZNSt3__114__split_bufferINS_12basic_stringIcNS_11char_traitsIcEENS_9allocatorIcEEEERNS4_IS6_EEE17__destruct_at_endB7v160006EPS6_NS_17integral_constantIbLb0EEE, symObjAddr: 0x2700, symBinAddr: 0x100002DF0, symSize: 0x94 }
  - { offsetInCU: 0xECE7, offset: 0xECE7, size: 0x8, addend: 0x0, symName: __ZNSt3__19allocatorINS_12basic_stringIcNS_11char_traitsIcEENS0_IcEEEEE10deallocateB7v160006EPS5_m, symObjAddr: 0x2794, symBinAddr: 0x100002E84, symSize: 0x74 }
  - { offsetInCU: 0xED28, offset: 0xED28, size: 0x8, addend: 0x0, symName: __ZNKSt3__114__split_bufferINS_12basic_stringIcNS_11char_traitsIcEENS_9allocatorIcEEEERNS4_IS6_EEE9__end_capB7v160006Ev, symObjAddr: 0x2884, symBinAddr: 0x100002F74, symSize: 0x28 }
  - { offsetInCU: 0xED4D, offset: 0xED4D, size: 0x8, addend: 0x0, symName: __ZNKSt3__117__compressed_pairIPNS_12basic_stringIcNS_11char_traitsIcEENS_9allocatorIcEEEERNS4_IS6_EEE5firstB7v160006Ev, symObjAddr: 0x28AC, symBinAddr: 0x100002F9C, symSize: 0x24 }
  - { offsetInCU: 0xED72, offset: 0xED72, size: 0x8, addend: 0x0, symName: __ZNSt3__111char_traitsIcE6lengthEPKc, symObjAddr: 0x2AC4, symBinAddr: 0x1000031B4, symSize: 0x48 }
  - { offsetInCU: 0xEDB3, offset: 0xEDB3, size: 0x8, addend: 0x0, symName: __ZNKSt3__113basic_ostreamIcNS_11char_traitsIcEEE6sentrycvbB7v160006Ev, symObjAddr: 0x2B0C, symBinAddr: 0x1000031FC, symSize: 0x1C }
  - { offsetInCU: 0xEDD8, offset: 0xEDD8, size: 0x8, addend: 0x0, symName: __ZNSt3__119ostreambuf_iteratorIcNS_11char_traitsIcEEEC1B7v160006ERNS_13basic_ostreamIcS2_EE, symObjAddr: 0x2D70, symBinAddr: 0x100003460, symSize: 0x34 }
  - { offsetInCU: 0xEE0F, offset: 0xEE0F, size: 0x8, addend: 0x0, symName: __ZNKSt3__18ios_base5flagsB7v160006Ev, symObjAddr: 0x2DA4, symBinAddr: 0x100003494, symSize: 0x18 }
  - { offsetInCU: 0xEE35, offset: 0xEE35, size: 0x8, addend: 0x0, symName: __ZNKSt3__19basic_iosIcNS_11char_traitsIcEEE4fillB7v160006Ev, symObjAddr: 0x2DBC, symBinAddr: 0x1000034AC, symSize: 0x64 }
  - { offsetInCU: 0xEE5C, offset: 0xEE5C, size: 0x8, addend: 0x0, symName: __ZNKSt3__119ostreambuf_iteratorIcNS_11char_traitsIcEEE6failedB7v160006Ev, symObjAddr: 0x2E20, symBinAddr: 0x100003510, symSize: 0x24 }
  - { offsetInCU: 0xEE81, offset: 0xEE81, size: 0x8, addend: 0x0, symName: __ZNSt3__19basic_iosIcNS_11char_traitsIcEEE8setstateB7v160006Ej, symObjAddr: 0x2E44, symBinAddr: 0x100003534, symSize: 0x2C }
  - { offsetInCU: 0xEEB5, offset: 0xEEB5, size: 0x8, addend: 0x0, symName: __ZNKSt3__18ios_base5widthB7v160006Ev, symObjAddr: 0x2E70, symBinAddr: 0x100003560, symSize: 0x18 }
  - { offsetInCU: 0xEEDC, offset: 0xEEDC, size: 0x8, addend: 0x0, symName: __ZNSt3__115basic_streambufIcNS_11char_traitsIcEEE5sputnB7v160006EPKcl, symObjAddr: 0x2E88, symBinAddr: 0x100003578, symSize: 0x3C }
  - { offsetInCU: 0xEF1D, offset: 0xEF1D, size: 0x8, addend: 0x0, symName: __ZNSt3__112basic_stringIcNS_11char_traitsIcEENS_9allocatorIcEEEC1B7v160006Emc, symObjAddr: 0x2EC4, symBinAddr: 0x1000035B4, symSize: 0x3C }
  - { offsetInCU: 0xEF64, offset: 0xEF64, size: 0x8, addend: 0x0, symName: __ZNKSt3__112basic_stringIcNS_11char_traitsIcEENS_9allocatorIcEEE4dataB7v160006Ev, symObjAddr: 0x2F00, symBinAddr: 0x1000035F0, symSize: 0x28 }
  - { offsetInCU: 0xEF89, offset: 0xEF89, size: 0x8, addend: 0x0, symName: __ZNSt3__18ios_base5widthB7v160006El, symObjAddr: 0x2F28, symBinAddr: 0x100003618, symSize: 0x2C }
  - { offsetInCU: 0xEFCE, offset: 0xEFCE, size: 0x8, addend: 0x0, symName: __ZNSt3__112basic_stringIcNS_11char_traitsIcEENS_9allocatorIcEEEC2B7v160006Emc, symObjAddr: 0x2F54, symBinAddr: 0x100003644, symSize: 0x54 }
  - { offsetInCU: 0xF015, offset: 0xF015, size: 0x8, addend: 0x0, symName: __ZNSt3__117__compressed_pairINS_12basic_stringIcNS_11char_traitsIcEENS_9allocatorIcEEE5__repES5_EC1B7v160006INS_18__default_init_tagESA_EEOT_OT0_, symObjAddr: 0x2FA8, symBinAddr: 0x100003698, symSize: 0x3C }
  - { offsetInCU: 0xF06C, offset: 0xF06C, size: 0x8, addend: 0x0, symName: __ZNSt3__117__compressed_pairINS_12basic_stringIcNS_11char_traitsIcEENS_9allocatorIcEEE5__repES5_EC2B7v160006INS_18__default_init_tagESA_EEOT_OT0_, symObjAddr: 0x2FF4, symBinAddr: 0x1000036E4, symSize: 0x3C }
  - { offsetInCU: 0xF0C3, offset: 0xF0C3, size: 0x8, addend: 0x0, symName: __ZNSt3__122__compressed_pair_elemINS_12basic_stringIcNS_11char_traitsIcEENS_9allocatorIcEEE5__repELi0ELb0EEC2B7v160006ENS_18__default_init_tagE, symObjAddr: 0x3030, symBinAddr: 0x100003720, symSize: 0x14 }
  - { offsetInCU: 0xF0F7, offset: 0xF0F7, size: 0x8, addend: 0x0, symName: __ZNSt3__122__compressed_pair_elemINS_9allocatorIcEELi1ELb1EEC2B7v160006ENS_18__default_init_tagE, symObjAddr: 0x3044, symBinAddr: 0x100003734, symSize: 0x2C }
  - { offsetInCU: 0xF12B, offset: 0xF12B, size: 0x8, addend: 0x0, symName: __ZNSt3__19allocatorIcEC2B7v160006Ev, symObjAddr: 0x3070, symBinAddr: 0x100003760, symSize: 0x2C }
  - { offsetInCU: 0xF154, offset: 0xF154, size: 0x8, addend: 0x0, symName: __ZNSt3__116__non_trivial_ifILb1ENS_9allocatorIcEEEC2B7v160006Ev, symObjAddr: 0x309C, symBinAddr: 0x10000378C, symSize: 0x14 }
  - { offsetInCU: 0xF17D, offset: 0xF17D, size: 0x8, addend: 0x0, symName: __ZNKSt3__112basic_stringIcNS_11char_traitsIcEENS_9allocatorIcEEE13__get_pointerB7v160006Ev, symObjAddr: 0x30C4, symBinAddr: 0x1000037B4, symSize: 0x54 }
  - { offsetInCU: 0xF1A2, offset: 0xF1A2, size: 0x8, addend: 0x0, symName: __ZNKSt3__112basic_stringIcNS_11char_traitsIcEENS_9allocatorIcEEE9__is_longB7v160006Ev, symObjAddr: 0x3118, symBinAddr: 0x100003808, symSize: 0x74 }
  - { offsetInCU: 0xF1C7, offset: 0xF1C7, size: 0x8, addend: 0x0, symName: __ZNKSt3__112basic_stringIcNS_11char_traitsIcEENS_9allocatorIcEEE18__get_long_pointerB7v160006Ev, symObjAddr: 0x318C, symBinAddr: 0x10000387C, symSize: 0x28 }
  - { offsetInCU: 0xF1EC, offset: 0xF1EC, size: 0x8, addend: 0x0, symName: __ZNKSt3__112basic_stringIcNS_11char_traitsIcEENS_9allocatorIcEEE19__get_short_pointerB7v160006Ev, symObjAddr: 0x31B4, symBinAddr: 0x1000038A4, symSize: 0x28 }
  - { offsetInCU: 0xF211, offset: 0xF211, size: 0x8, addend: 0x0, symName: __ZNKSt3__117__compressed_pairINS_12basic_stringIcNS_11char_traitsIcEENS_9allocatorIcEEE5__repES5_E5firstB7v160006Ev, symObjAddr: 0x31DC, symBinAddr: 0x1000038CC, symSize: 0x24 }
  - { offsetInCU: 0xF236, offset: 0xF236, size: 0x8, addend: 0x0, symName: __ZNKSt3__122__compressed_pair_elemINS_12basic_stringIcNS_11char_traitsIcEENS_9allocatorIcEEE5__repELi0ELb0EE5__getB7v160006Ev, symObjAddr: 0x3200, symBinAddr: 0x1000038F0, symSize: 0x14 }
  - { offsetInCU: 0xF25B, offset: 0xF25B, size: 0x8, addend: 0x0, symName: __ZNSt3__114pointer_traitsIPKcE10pointer_toB7v160006ERS1_, symObjAddr: 0x3214, symBinAddr: 0x100003904, symSize: 0x14 }
  - { offsetInCU: 0xF27E, offset: 0xF27E, size: 0x8, addend: 0x0, symName: __ZNSt3__119ostreambuf_iteratorIcNS_11char_traitsIcEEEC2B7v160006ERNS_13basic_ostreamIcS2_EE, symObjAddr: 0x3228, symBinAddr: 0x100003918, symSize: 0x68 }
  - { offsetInCU: 0xF2B4, offset: 0xF2B4, size: 0x8, addend: 0x0, symName: __ZNKSt3__19basic_iosIcNS_11char_traitsIcEEE5rdbufB7v160006Ev, symObjAddr: 0x3290, symBinAddr: 0x100003980, symSize: 0x24 }
  - { offsetInCU: 0xF2DB, offset: 0xF2DB, size: 0x8, addend: 0x0, symName: __ZNKSt3__18ios_base5rdbufB7v160006Ev, symObjAddr: 0x32B4, symBinAddr: 0x1000039A4, symSize: 0x18 }
  - { offsetInCU: 0xF300, offset: 0xF300, size: 0x8, addend: 0x0, symName: __ZNSt3__111char_traitsIcE11eq_int_typeEii, symObjAddr: 0x32CC, symBinAddr: 0x1000039BC, symSize: 0x28 }
  - { offsetInCU: 0xF331, offset: 0xF331, size: 0x8, addend: 0x0, symName: __ZNSt3__111char_traitsIcE3eofEv, symObjAddr: 0x32F4, symBinAddr: 0x1000039E4, symSize: 0x8 }
  - { offsetInCU: 0xF344, offset: 0xF344, size: 0x8, addend: 0x0, symName: __ZNKSt3__19basic_iosIcNS_11char_traitsIcEEE5widenB7v160006Ec, symObjAddr: 0x32FC, symBinAddr: 0x1000039EC, symSize: 0x8C }
  - { offsetInCU: 0xF3B1, offset: 0xF3B1, size: 0x8, addend: 0x0, symName: __ZNKSt3__15ctypeIcE5widenB7v160006Ec, symObjAddr: 0x33B4, symBinAddr: 0x100003AA4, symSize: 0x38 }
  - { offsetInCU: 0xF3E4, offset: 0xF3E4, size: 0x8, addend: 0x0, symName: __ZNSt3__18ios_base8setstateB7v160006Ej, symObjAddr: 0x33EC, symBinAddr: 0x100003ADC, symSize: 0x34 }
  - { offsetInCU: 0xF41A, offset: 0xF41A, size: 0x8, addend: 0x0, symName: __ZNKSt3__112basic_stringIcNS_11char_traitsIcEENS_9allocatorIcEEE4sizeB7v160006Ev, symObjAddr: 0x3444, symBinAddr: 0x100003B34, symSize: 0x54 }
  - { offsetInCU: 0xF43F, offset: 0xF43F, size: 0x8, addend: 0x0, symName: __ZNKSt3__112basic_stringIcNS_11char_traitsIcEENS_9allocatorIcEEE15__get_long_sizeB7v160006Ev, symObjAddr: 0x3498, symBinAddr: 0x100003B88, symSize: 0x28 }
  - { offsetInCU: 0xF464, offset: 0xF464, size: 0x8, addend: 0x0, symName: __ZNKSt3__112basic_stringIcNS_11char_traitsIcEENS_9allocatorIcEEE16__get_short_sizeB7v160006Ev, symObjAddr: 0x34C0, symBinAddr: 0x100003BB0, symSize: 0x34 }
  - { offsetInCU: 0xF489, offset: 0xF489, size: 0x8, addend: 0x0, symName: __ZN4Book10returnBookERKNSt3__112basic_stringIcNS0_11char_traitsIcEENS0_9allocatorIcEEEE, symObjAddr: 0x34F4, symBinAddr: 0x100003BE4, symSize: 0x144 }
  - { offsetInCU: 0xF4C9, offset: 0xF4C9, size: 0x8, addend: 0x0, symName: __ZNSt3__16vectorIP4BookNS_9allocatorIS2_EEE5beginB7v160006Ev, symObjAddr: 0x36B8, symBinAddr: 0x100003DA8, symSize: 0x30 }
  - { offsetInCU: 0xF4EF, offset: 0xF4EF, size: 0x8, addend: 0x0, symName: __ZNSt3__16vectorIP4BookNS_9allocatorIS2_EEE3endB7v160006Ev, symObjAddr: 0x36E8, symBinAddr: 0x100003DD8, symSize: 0x30 }
  - { offsetInCU: 0xF515, offset: 0xF515, size: 0x8, addend: 0x0, symName: __ZNSt3__16vectorIP4BookNS_9allocatorIS2_EEE5eraseB7v160006ENS_11__wrap_iterIPKS2_EE, symObjAddr: 0x374C, symBinAddr: 0x100003E3C, symSize: 0xB4 }
  - { offsetInCU: 0xF573, offset: 0xF573, size: 0x8, addend: 0x0, symName: __ZNSt3__111__wrap_iterIPKP4BookEC1B7v160006IPS2_EERKNS0_IT_EEPNS_9enable_ifIXsr14is_convertibleIS8_S4_EE5valueEvE4typeE, symObjAddr: 0x3800, symBinAddr: 0x100003EF0, symSize: 0x3C }
  - { offsetInCU: 0xF5BD, offset: 0xF5BD, size: 0x8, addend: 0x0, symName: __ZNSt3__16vectorINS_12basic_stringIcNS_11char_traitsIcEENS_9allocatorIcEEEENS4_IS6_EEE5beginB7v160006Ev, symObjAddr: 0x38B0, symBinAddr: 0x100003FA0, symSize: 0x30 }
  - { offsetInCU: 0xF5E3, offset: 0xF5E3, size: 0x8, addend: 0x0, symName: __ZNSt3__16vectorINS_12basic_stringIcNS_11char_traitsIcEENS_9allocatorIcEEEENS4_IS6_EEE3endB7v160006Ev, symObjAddr: 0x38E0, symBinAddr: 0x100003FD0, symSize: 0x30 }
  - { offsetInCU: 0xF609, offset: 0xF609, size: 0x8, addend: 0x0, symName: __ZNSt3__16vectorINS_12basic_stringIcNS_11char_traitsIcEENS_9allocatorIcEEEENS4_IS6_EEE5eraseB7v160006ENS_11__wrap_iterIPKS6_EE, symObjAddr: 0x3944, symBinAddr: 0x100004034, symSize: 0xBC }
  - { offsetInCU: 0xF662, offset: 0xF662, size: 0x8, addend: 0x0, symName: __ZNSt3__111__wrap_iterIPKNS_12basic_stringIcNS_11char_traitsIcEENS_9allocatorIcEEEEEC1B7v160006IPS6_EERKNS0_IT_EEPNS_9enable_ifIXsr14is_convertibleISC_S8_EE5valueEvE4typeE, symObjAddr: 0x3A00, symBinAddr: 0x1000040F0, symSize: 0x3C }
  - { offsetInCU: 0xF6AD, offset: 0xF6AD, size: 0x8, addend: 0x0, symName: __ZNKSt3__111__wrap_iterIPNS_12basic_stringIcNS_11char_traitsIcEENS_9allocatorIcEEEEEdeB7v160006Ev, symObjAddr: 0x3B84, symBinAddr: 0x100004274, symSize: 0x18 }
  - { offsetInCU: 0xF6D2, offset: 0xF6D2, size: 0x8, addend: 0x0, symName: __ZNSt3__111__wrap_iterIPNS_12basic_stringIcNS_11char_traitsIcEENS_9allocatorIcEEEEEppB7v160006Ev, symObjAddr: 0x3B9C, symBinAddr: 0x10000428C, symSize: 0x20 }
  - { offsetInCU: 0xF6F7, offset: 0xF6F7, size: 0x8, addend: 0x0, symName: __ZNSt3__111char_traitsIcE7compareEPKcS3_m, symObjAddr: 0x3BBC, symBinAddr: 0x1000042AC, symSize: 0x80 }
  - { offsetInCU: 0xF736, offset: 0xF736, size: 0x8, addend: 0x0, symName: __ZNSt3__16vectorINS_12basic_stringIcNS_11char_traitsIcEENS_9allocatorIcEEEENS4_IS6_EEE11__make_iterB7v160006EPS6_, symObjAddr: 0x3C70, symBinAddr: 0x100004360, symSize: 0x34 }
  - { offsetInCU: 0xF76A, offset: 0xF76A, size: 0x8, addend: 0x0, symName: __ZNSt3__111__wrap_iterIPNS_12basic_stringIcNS_11char_traitsIcEENS_9allocatorIcEEEEEC1B7v160006EPKvS7_, symObjAddr: 0x3CA4, symBinAddr: 0x100004394, symSize: 0x3C }
  - { offsetInCU: 0xF7AF, offset: 0xF7AF, size: 0x8, addend: 0x0, symName: __ZNSt3__111__wrap_iterIPNS_12basic_stringIcNS_11char_traitsIcEENS_9allocatorIcEEEEEC2B7v160006EPKvS7_, symObjAddr: 0x3CE0, symBinAddr: 0x1000043D0, symSize: 0x24 }
  - { offsetInCU: 0xF7F4, offset: 0xF7F4, size: 0x8, addend: 0x0, symName: __ZNKSt3__111__wrap_iterIPNS_12basic_stringIcNS_11char_traitsIcEENS_9allocatorIcEEEEE4baseB7v160006Ev, symObjAddr: 0x3D4C, symBinAddr: 0x10000443C, symSize: 0x18 }
  - { offsetInCU: 0xF819, offset: 0xF819, size: 0x8, addend: 0x0, symName: __ZNKSt3__16vectorINS_12basic_stringIcNS_11char_traitsIcEENS_9allocatorIcEEEENS4_IS6_EEE6cbeginB7v160006Ev, symObjAddr: 0x3DAC, symBinAddr: 0x10000449C, symSize: 0x2C }
  - { offsetInCU: 0xF83E, offset: 0xF83E, size: 0x8, addend: 0x0, symName: __ZNSt3__16vectorINS_12basic_stringIcNS_11char_traitsIcEENS_9allocatorIcEEEENS4_IS6_EEE17__destruct_at_endB7v160006EPS6_, symObjAddr: 0x3DD8, symBinAddr: 0x1000044C8, symSize: 0x88 }
  - { offsetInCU: 0xF881, offset: 0xF881, size: 0x8, addend: 0x0, symName: __ZNSt3__16vectorINS_12basic_stringIcNS_11char_traitsIcEENS_9allocatorIcEEEENS4_IS6_EEE27__invalidate_iterators_pastB7v160006EPS6_, symObjAddr: 0x3EA0, symBinAddr: 0x100004590, symSize: 0x14 }
  - { offsetInCU: 0xF8B7, offset: 0xF8B7, size: 0x8, addend: 0x0, symName: __ZNKSt3__111__wrap_iterIPKNS_12basic_stringIcNS_11char_traitsIcEENS_9allocatorIcEEEEE4baseB7v160006Ev, symObjAddr: 0x3EB4, symBinAddr: 0x1000045A4, symSize: 0x18 }
  - { offsetInCU: 0xF8DB, offset: 0xF8DB, size: 0x8, addend: 0x0, symName: __ZNKSt3__16vectorINS_12basic_stringIcNS_11char_traitsIcEENS_9allocatorIcEEEENS4_IS6_EEE5beginB7v160006Ev, symObjAddr: 0x3ECC, symBinAddr: 0x1000045BC, symSize: 0x30 }
  - { offsetInCU: 0xF902, offset: 0xF902, size: 0x8, addend: 0x0, symName: __ZNKSt3__16vectorINS_12basic_stringIcNS_11char_traitsIcEENS_9allocatorIcEEEENS4_IS6_EEE11__make_iterB7v160006EPKS6_, symObjAddr: 0x3EFC, symBinAddr: 0x1000045EC, symSize: 0x34 }
  - { offsetInCU: 0xF936, offset: 0xF936, size: 0x8, addend: 0x0, symName: __ZNSt3__111__wrap_iterIPKNS_12basic_stringIcNS_11char_traitsIcEENS_9allocatorIcEEEEEC1B7v160006EPKvS8_, symObjAddr: 0x3F30, symBinAddr: 0x100004620, symSize: 0x3C }
  - { offsetInCU: 0xF97B, offset: 0xF97B, size: 0x8, addend: 0x0, symName: __ZNSt3__111__wrap_iterIPKNS_12basic_stringIcNS_11char_traitsIcEENS_9allocatorIcEEEEEC2B7v160006EPKvS8_, symObjAddr: 0x3F6C, symBinAddr: 0x10000465C, symSize: 0x24 }
  - { offsetInCU: 0xF9C0, offset: 0xF9C0, size: 0x8, addend: 0x0, symName: __ZNSt3__16vectorINS_12basic_stringIcNS_11char_traitsIcEENS_9allocatorIcEEEENS4_IS6_EEE22__base_destruct_at_endB7v160006EPS6_, symObjAddr: 0x3F90, symBinAddr: 0x100004680, symSize: 0xA0 }
  - { offsetInCU: 0xFA03, offset: 0xFA03, size: 0x8, addend: 0x0, symName: __ZNKSt3__16vectorINS_12basic_stringIcNS_11char_traitsIcEENS_9allocatorIcEEEENS4_IS6_EEE17__annotate_shrinkB7v160006Em, symObjAddr: 0x4030, symBinAddr: 0x100004720, symSize: 0xD0 }
  - { offsetInCU: 0xFA5A, offset: 0xFA5A, size: 0x8, addend: 0x0, symName: __ZNKSt3__111__move_loopINS_17_ClassicAlgPolicyEEclB7v160006IPNS_12basic_stringIcNS_11char_traitsIcEENS_9allocatorIcEEEESA_SA_EENS_4pairIT_T1_EESC_T0_SD_, symObjAddr: 0x437C, symBinAddr: 0x100004A6C, symSize: 0x90 }
  - { offsetInCU: 0xFACE, offset: 0xFACE, size: 0x8, addend: 0x0, symName: __ZNSt3__18_IterOpsINS_17_ClassicAlgPolicyEE11__iter_moveB7v160006IRPNS_12basic_stringIcNS_11char_traitsIcEENS_9allocatorIcEEEEEENS_9enable_ifIXsr12is_referenceIDTdeclsr3stdE7declvalIRT_EEEEE5valueEDTclsr3stdE4movedeclsr3stdE7declvalISE_EEEEE4typeEOSD_, symObjAddr: 0x44E4, symBinAddr: 0x100004BD4, symSize: 0x28 }
  - { offsetInCU: 0xFAFA, offset: 0xFAFA, size: 0x8, addend: 0x0, symName: __ZNSt3__18_IterOpsINS_17_ClassicAlgPolicyEE25__validate_iter_referenceB7v160006IRPNS_12basic_stringIcNS_11char_traitsIcEENS_9allocatorIcEEEEEEvv, symObjAddr: 0x450C, symBinAddr: 0x100004BFC, symSize: 0x4 }
  - { offsetInCU: 0xFB18, offset: 0xFB18, size: 0x8, addend: 0x0, symName: __ZNSt3__118__unwrap_iter_implIPNS_12basic_stringIcNS_11char_traitsIcEENS_9allocatorIcEEEELb1EE8__unwrapB7v160006ES7_, symObjAddr: 0x4510, symBinAddr: 0x100004C00, symSize: 0x24 }
  - { offsetInCU: 0xFB3B, offset: 0xFB3B, size: 0x8, addend: 0x0, symName: __ZNSt3__14pairIPNS_12basic_stringIcNS_11char_traitsIcEENS_9allocatorIcEEEES7_EC1B7v160006ERKS7_SA_, symObjAddr: 0x4534, symBinAddr: 0x100004C24, symSize: 0x3C }
  - { offsetInCU: 0xFB80, offset: 0xFB80, size: 0x8, addend: 0x0, symName: __ZNSt3__14pairIPNS_12basic_stringIcNS_11char_traitsIcEENS_9allocatorIcEEEES7_EC2B7v160006ERKS7_SA_, symObjAddr: 0x4570, symBinAddr: 0x100004C60, symSize: 0x34 }
  - { offsetInCU: 0xFBC5, offset: 0xFBC5, size: 0x8, addend: 0x0, symName: __ZNSt3__118__unwrap_iter_implIPNS_12basic_stringIcNS_11char_traitsIcEENS_9allocatorIcEEEELb1EE8__rewrapB7v160006ES7_S7_, symObjAddr: 0x45A4, symBinAddr: 0x100004C94, symSize: 0x58 }
  - { offsetInCU: 0xFBF6, offset: 0xFBF6, size: 0x8, addend: 0x0, symName: __ZNSt3__111__wrap_iterIPKNS_12basic_stringIcNS_11char_traitsIcEENS_9allocatorIcEEEEEC2B7v160006IPS6_EERKNS0_IT_EEPNS_9enable_ifIXsr14is_convertibleISC_S8_EE5valueEvE4typeE, symObjAddr: 0x45FC, symBinAddr: 0x100004CEC, symSize: 0x40 }
  - { offsetInCU: 0xFC41, offset: 0xFC41, size: 0x8, addend: 0x0, symName: __ZNKSt3__111__wrap_iterIPP4BookEdeB7v160006Ev, symObjAddr: 0x463C, symBinAddr: 0x100004D2C, symSize: 0x18 }
  - { offsetInCU: 0xFC66, offset: 0xFC66, size: 0x8, addend: 0x0, symName: __ZNSt3__111__wrap_iterIPP4BookEppB7v160006Ev, symObjAddr: 0x4654, symBinAddr: 0x100004D44, symSize: 0x20 }
  - { offsetInCU: 0xFC8B, offset: 0xFC8B, size: 0x8, addend: 0x0, symName: __ZNSt3__16vectorIP4BookNS_9allocatorIS2_EEE11__make_iterB7v160006EPS2_, symObjAddr: 0x4674, symBinAddr: 0x100004D64, symSize: 0x34 }
  - { offsetInCU: 0xFCBF, offset: 0xFCBF, size: 0x8, addend: 0x0, symName: __ZNSt3__111__wrap_iterIPP4BookEC1B7v160006EPKvS3_, symObjAddr: 0x46A8, symBinAddr: 0x100004D98, symSize: 0x3C }
  - { offsetInCU: 0xFD04, offset: 0xFD04, size: 0x8, addend: 0x0, symName: __ZNSt3__111__wrap_iterIPP4BookEC2B7v160006EPKvS3_, symObjAddr: 0x46E4, symBinAddr: 0x100004DD4, symSize: 0x24 }
  - { offsetInCU: 0xFD49, offset: 0xFD49, size: 0x8, addend: 0x0, symName: __ZNKSt3__111__wrap_iterIPP4BookE4baseB7v160006Ev, symObjAddr: 0x4750, symBinAddr: 0x100004E40, symSize: 0x18 }
  - { offsetInCU: 0xFD6E, offset: 0xFD6E, size: 0x8, addend: 0x0, symName: __ZNKSt3__16vectorIP4BookNS_9allocatorIS2_EEE6cbeginB7v160006Ev, symObjAddr: 0x47B0, symBinAddr: 0x100004EA0, symSize: 0x2C }
  - { offsetInCU: 0xFD93, offset: 0xFD93, size: 0x8, addend: 0x0, symName: __ZNSt3__16vectorIP4BookNS_9allocatorIS2_EEE17__destruct_at_endB7v160006EPS2_, symObjAddr: 0x47DC, symBinAddr: 0x100004ECC, symSize: 0x88 }
  - { offsetInCU: 0xFDD6, offset: 0xFDD6, size: 0x8, addend: 0x0, symName: __ZNSt3__16vectorIP4BookNS_9allocatorIS2_EEE27__invalidate_iterators_pastB7v160006EPS2_, symObjAddr: 0x48A4, symBinAddr: 0x100004F94, symSize: 0x14 }
  - { offsetInCU: 0xFE0C, offset: 0xFE0C, size: 0x8, addend: 0x0, symName: __ZNKSt3__111__wrap_iterIPKP4BookE4baseB7v160006Ev, symObjAddr: 0x48B8, symBinAddr: 0x100004FA8, symSize: 0x18 }
  - { offsetInCU: 0xFE30, offset: 0xFE30, size: 0x8, addend: 0x0, symName: __ZNKSt3__16vectorIP4BookNS_9allocatorIS2_EEE5beginB7v160006Ev, symObjAddr: 0x48D0, symBinAddr: 0x100004FC0, symSize: 0x30 }
  - { offsetInCU: 0xFE57, offset: 0xFE57, size: 0x8, addend: 0x0, symName: __ZNKSt3__16vectorIP4BookNS_9allocatorIS2_EEE11__make_iterB7v160006EPKS2_, symObjAddr: 0x4900, symBinAddr: 0x100004FF0, symSize: 0x34 }
  - { offsetInCU: 0xFE8B, offset: 0xFE8B, size: 0x8, addend: 0x0, symName: __ZNSt3__111__wrap_iterIPKP4BookEC1B7v160006EPKvS4_, symObjAddr: 0x4934, symBinAddr: 0x100005024, symSize: 0x3C }
  - { offsetInCU: 0xFED0, offset: 0xFED0, size: 0x8, addend: 0x0, symName: __ZNSt3__111__wrap_iterIPKP4BookEC2B7v160006EPKvS4_, symObjAddr: 0x4970, symBinAddr: 0x100005060, symSize: 0x24 }
  - { offsetInCU: 0xFF15, offset: 0xFF15, size: 0x8, addend: 0x0, symName: __ZNSt3__16vectorIP4BookNS_9allocatorIS2_EEE22__base_destruct_at_endB7v160006EPS2_, symObjAddr: 0x4994, symBinAddr: 0x100005084, symSize: 0xA0 }
  - { offsetInCU: 0xFF58, offset: 0xFF58, size: 0x8, addend: 0x0, symName: __ZNKSt3__16vectorIP4BookNS_9allocatorIS2_EEE17__annotate_shrinkB7v160006Em, symObjAddr: 0x4A34, symBinAddr: 0x100005124, symSize: 0xB4 }
  - { offsetInCU: 0xFF8C, offset: 0xFF8C, size: 0x8, addend: 0x0, symName: __ZNSt3__116allocator_traitsINS_9allocatorIP4BookEEE7destroyB7v160006IS3_vEEvRS4_PT_, symObjAddr: 0x4AE8, symBinAddr: 0x1000051D8, symSize: 0x2C }
  - { offsetInCU: 0xFFC9, offset: 0xFFC9, size: 0x8, addend: 0x0, symName: __ZNSt3__16vectorIP4BookNS_9allocatorIS2_EEE7__allocB7v160006Ev, symObjAddr: 0x4B14, symBinAddr: 0x100005204, symSize: 0x28 }
  - { offsetInCU: 0xFFEE, offset: 0xFFEE, size: 0x8, addend: 0x0, symName: __ZNSt3__19allocatorIP4BookE7destroyB7v160006EPS2_, symObjAddr: 0x4B50, symBinAddr: 0x100005240, symSize: 0x14 }
  - { offsetInCU: 0x10021, offset: 0x10021, size: 0x8, addend: 0x0, symName: __ZNSt3__117__compressed_pairIPP4BookNS_9allocatorIS2_EEE6secondB7v160006Ev, symObjAddr: 0x4B64, symBinAddr: 0x100005254, symSize: 0x24 }
  - { offsetInCU: 0x10046, offset: 0x10046, size: 0x8, addend: 0x0, symName: __ZNSt3__122__compressed_pair_elemINS_9allocatorIP4BookEELi1ELb1EE5__getB7v160006Ev, symObjAddr: 0x4B88, symBinAddr: 0x100005278, symSize: 0x14 }
  - { offsetInCU: 0x1006B, offset: 0x1006B, size: 0x8, addend: 0x0, symName: __ZNKSt3__16vectorIP4BookNS_9allocatorIS2_EEE31__annotate_contiguous_containerB7v160006EPKvS7_S7_S7_, symObjAddr: 0x4B9C, symBinAddr: 0x10000528C, symSize: 0x20 }
  - { offsetInCU: 0x100BC, offset: 0x100BC, size: 0x8, addend: 0x0, symName: __ZNKSt3__16vectorIP4BookNS_9allocatorIS2_EEE4dataB7v160006Ev, symObjAddr: 0x4BBC, symBinAddr: 0x1000052AC, symSize: 0x28 }
  - { offsetInCU: 0x100E1, offset: 0x100E1, size: 0x8, addend: 0x0, symName: __ZNKSt3__16vectorIP4BookNS_9allocatorIS2_EEE8capacityB7v160006Ev, symObjAddr: 0x4BE4, symBinAddr: 0x1000052D4, symSize: 0x40 }
  - { offsetInCU: 0x10106, offset: 0x10106, size: 0x8, addend: 0x0, symName: __ZNKSt3__16vectorIP4BookNS_9allocatorIS2_EEE9__end_capB7v160006Ev, symObjAddr: 0x4C24, symBinAddr: 0x100005314, symSize: 0x28 }
  - { offsetInCU: 0x1012B, offset: 0x1012B, size: 0x8, addend: 0x0, symName: __ZNKSt3__117__compressed_pairIPP4BookNS_9allocatorIS2_EEE5firstB7v160006Ev, symObjAddr: 0x4C4C, symBinAddr: 0x10000533C, symSize: 0x24 }
  - { offsetInCU: 0x10150, offset: 0x10150, size: 0x8, addend: 0x0, symName: __ZNKSt3__122__compressed_pair_elemIPP4BookLi0ELb0EE5__getB7v160006Ev, symObjAddr: 0x4C70, symBinAddr: 0x100005360, symSize: 0x14 }
  - { offsetInCU: 0x10198, offset: 0x10198, size: 0x8, addend: 0x0, symName: __ZNKSt3__114__move_trivialclB7v160006IP4BookS3_Li0EEENS_4pairIPT_PT0_EES6_S6_S8_, symObjAddr: 0x4E30, symBinAddr: 0x100005520, symSize: 0x48 }
  - { offsetInCU: 0x101FF, offset: 0x101FF, size: 0x8, addend: 0x0, symName: __ZNSt3__14pairIPP4BookS3_EC1B7v160006ERKS3_S6_, symObjAddr: 0x500C, symBinAddr: 0x1000056FC, symSize: 0x3C }
  - { offsetInCU: 0x10244, offset: 0x10244, size: 0x8, addend: 0x0, symName: __ZNSt3__14pairIPP4BookS3_EC2B7v160006ERKS3_S6_, symObjAddr: 0x5048, symBinAddr: 0x100005738, symSize: 0x34 }
  - { offsetInCU: 0x10289, offset: 0x10289, size: 0x8, addend: 0x0, symName: __ZNSt3__118__unwrap_iter_implIPP4BookLb1EE8__unwrapB7v160006ES3_, symObjAddr: 0x507C, symBinAddr: 0x10000576C, symSize: 0x24 }
  - { offsetInCU: 0x102AC, offset: 0x102AC, size: 0x8, addend: 0x0, symName: __ZNSt3__118__unwrap_iter_implIPP4BookLb1EE8__rewrapB7v160006ES3_S3_, symObjAddr: 0x50A0, symBinAddr: 0x100005790, symSize: 0x50 }
  - { offsetInCU: 0x102DD, offset: 0x102DD, size: 0x8, addend: 0x0, symName: __ZNSt3__111__wrap_iterIPKP4BookEC2B7v160006IPS2_EERKNS0_IT_EEPNS_9enable_ifIXsr14is_convertibleIS8_S4_EE5valueEvE4typeE, symObjAddr: 0x50F0, symBinAddr: 0x1000057E0, symSize: 0x40 }
  - { offsetInCU: 0x10328, offset: 0x10328, size: 0x8, addend: 0x0, symName: __ZN4BookD2Ev, symObjAddr: 0x5130, symBinAddr: 0x100005820, symSize: 0x68 }
  - { offsetInCU: 0x10353, offset: 0x10353, size: 0x8, addend: 0x0, symName: __ZNSt3__16vectorINS_12basic_stringIcNS_11char_traitsIcEENS_9allocatorIcEEEENS4_IS6_EEED1B7v160006Ev, symObjAddr: 0x5198, symBinAddr: 0x100005888, symSize: 0x2C }
  - { offsetInCU: 0x1037C, offset: 0x1037C, size: 0x8, addend: 0x0, symName: __ZNSt3__16vectorINS_12basic_stringIcNS_11char_traitsIcEENS_9allocatorIcEEEENS4_IS6_EEED2B7v160006Ev, symObjAddr: 0x51C4, symBinAddr: 0x1000058B4, symSize: 0x3C }
  - { offsetInCU: 0x103A5, offset: 0x103A5, size: 0x8, addend: 0x0, symName: __ZNSt3__16vectorINS_12basic_stringIcNS_11char_traitsIcEENS_9allocatorIcEEEENS4_IS6_EEE16__destroy_vectorC1ERS8_, symObjAddr: 0x5200, symBinAddr: 0x1000058F0, symSize: 0x34 }
  - { offsetInCU: 0x103DD, offset: 0x103DD, size: 0x8, addend: 0x0, symName: __ZNSt3__16vectorINS_12basic_stringIcNS_11char_traitsIcEENS_9allocatorIcEEEENS4_IS6_EEE16__destroy_vectorclB7v160006Ev, symObjAddr: 0x5234, symBinAddr: 0x100005924, symSize: 0x9C }
  - { offsetInCU: 0x10402, offset: 0x10402, size: 0x8, addend: 0x0, symName: __ZNSt3__16vectorINS_12basic_stringIcNS_11char_traitsIcEENS_9allocatorIcEEEENS4_IS6_EEE16__destroy_vectorC2ERS8_, symObjAddr: 0x52D0, symBinAddr: 0x1000059C0, symSize: 0x20 }
  - { offsetInCU: 0x1043A, offset: 0x1043A, size: 0x8, addend: 0x0, symName: __ZNSt3__16vectorINS_12basic_stringIcNS_11char_traitsIcEENS_9allocatorIcEEEENS4_IS6_EEE7__clearB7v160006Ev, symObjAddr: 0x5300, symBinAddr: 0x1000059F0, symSize: 0x28 }
  - { offsetInCU: 0x1045F, offset: 0x1045F, size: 0x8, addend: 0x0, symName: __ZN4UserD2Ev, symObjAddr: 0x5328, symBinAddr: 0x100005A18, symSize: 0x68 }
  - { offsetInCU: 0x1048A, offset: 0x1048A, size: 0x8, addend: 0x0, symName: __ZNSt3__16vectorIP4BookNS_9allocatorIS2_EEEC2B7v160006Ev, symObjAddr: 0x5390, symBinAddr: 0x100005A80, symSize: 0x4C }
  - { offsetInCU: 0x104B3, offset: 0x104B3, size: 0x8, addend: 0x0, symName: __ZNSt3__117__compressed_pairIPP4BookNS_9allocatorIS2_EEEC1B7v160006IDnNS_18__default_init_tagEEEOT_OT0_, symObjAddr: 0x53DC, symBinAddr: 0x100005ACC, symSize: 0x3C }
  - { offsetInCU: 0x1050A, offset: 0x1050A, size: 0x8, addend: 0x0, symName: __ZNSt3__117__compressed_pairIPP4BookNS_9allocatorIS2_EEEC2B7v160006IDnNS_18__default_init_tagEEEOT_OT0_, symObjAddr: 0x5428, symBinAddr: 0x100005B18, symSize: 0x40 }
  - { offsetInCU: 0x10561, offset: 0x10561, size: 0x8, addend: 0x0, symName: __ZNSt3__122__compressed_pair_elemIPP4BookLi0ELb0EEC2B7v160006IDnvEEOT_, symObjAddr: 0x5468, symBinAddr: 0x100005B58, symSize: 0x1C }
  - { offsetInCU: 0x105A2, offset: 0x105A2, size: 0x8, addend: 0x0, symName: __ZNSt3__122__compressed_pair_elemINS_9allocatorIP4BookEELi1ELb1EEC2B7v160006ENS_18__default_init_tagE, symObjAddr: 0x5484, symBinAddr: 0x100005B74, symSize: 0x2C }
  - { offsetInCU: 0x105D6, offset: 0x105D6, size: 0x8, addend: 0x0, symName: __ZNSt3__19allocatorIP4BookEC2B7v160006Ev, symObjAddr: 0x54B0, symBinAddr: 0x100005BA0, symSize: 0x2C }
  - { offsetInCU: 0x105FF, offset: 0x105FF, size: 0x8, addend: 0x0, symName: __ZNSt3__116__non_trivial_ifILb1ENS_9allocatorIP4BookEEEC2B7v160006Ev, symObjAddr: 0x54DC, symBinAddr: 0x100005BCC, symSize: 0x14 }
  - { offsetInCU: 0x10628, offset: 0x10628, size: 0x8, addend: 0x0, symName: __ZNSt3__16vectorIP4BookNS_9allocatorIS2_EEED2B7v160006Ev, symObjAddr: 0x54F0, symBinAddr: 0x100005BE0, symSize: 0x3C }
  - { offsetInCU: 0x10651, offset: 0x10651, size: 0x8, addend: 0x0, symName: __ZNSt3__16vectorIP4BookNS_9allocatorIS2_EEE16__destroy_vectorC1ERS5_, symObjAddr: 0x552C, symBinAddr: 0x100005C1C, symSize: 0x34 }
  - { offsetInCU: 0x10689, offset: 0x10689, size: 0x8, addend: 0x0, symName: __ZNSt3__16vectorIP4BookNS_9allocatorIS2_EEE16__destroy_vectorclB7v160006Ev, symObjAddr: 0x5560, symBinAddr: 0x100005C50, symSize: 0x9C }
  - { offsetInCU: 0x106AE, offset: 0x106AE, size: 0x8, addend: 0x0, symName: __ZNSt3__16vectorIP4BookNS_9allocatorIS2_EEE16__destroy_vectorC2ERS5_, symObjAddr: 0x55FC, symBinAddr: 0x100005CEC, symSize: 0x20 }
  - { offsetInCU: 0x106E6, offset: 0x106E6, size: 0x8, addend: 0x0, symName: __ZNKSt3__16vectorIP4BookNS_9allocatorIS2_EEE17__annotate_deleteB7v160006Ev, symObjAddr: 0x561C, symBinAddr: 0x100005D0C, symSize: 0xB8 }
  - { offsetInCU: 0x1070B, offset: 0x1070B, size: 0x8, addend: 0x0, symName: __ZNSt3__16vectorIP4BookNS_9allocatorIS2_EEE7__clearB7v160006Ev, symObjAddr: 0x56E4, symBinAddr: 0x100005DD4, symSize: 0x28 }
  - { offsetInCU: 0x10730, offset: 0x10730, size: 0x8, addend: 0x0, symName: __ZNSt3__116allocator_traitsINS_9allocatorIP4BookEEE10deallocateB7v160006ERS4_PS3_m, symObjAddr: 0x570C, symBinAddr: 0x100005DFC, symSize: 0x34 }
  - { offsetInCU: 0x10772, offset: 0x10772, size: 0x8, addend: 0x0, symName: __ZNSt3__19allocatorIP4BookE10deallocateB7v160006EPS2_m, symObjAddr: 0x5740, symBinAddr: 0x100005E30, symSize: 0x70 }
  - { offsetInCU: 0x107B3, offset: 0x107B3, size: 0x8, addend: 0x0, symName: __ZNSt3__16vectorIP4BookNS_9allocatorIS2_EEE9__end_capB7v160006Ev, symObjAddr: 0x57B0, symBinAddr: 0x100005EA0, symSize: 0x28 }
  - { offsetInCU: 0x107DD, offset: 0x107DD, size: 0x8, addend: 0x0, symName: __ZNSt3__16vectorIP4BookNS_9allocatorIS2_EEE22__construct_one_at_endB7v160006IJS2_EEEvDpOT_, symObjAddr: 0x57D8, symBinAddr: 0x100005EC8, symSize: 0x98 }
  - { offsetInCU: 0x1082A, offset: 0x1082A, size: 0x8, addend: 0x0, symName: __ZNSt3__16vectorIP4BookNS_9allocatorIS2_EEE21__push_back_slow_pathIS2_EEvOT_, symObjAddr: 0x5870, symBinAddr: 0x100005F60, symSize: 0xE0 }
  - { offsetInCU: 0x10887, offset: 0x10887, size: 0x8, addend: 0x0, symName: __ZNSt3__117__compressed_pairIPP4BookNS_9allocatorIS2_EEE5firstB7v160006Ev, symObjAddr: 0x5950, symBinAddr: 0x100006040, symSize: 0x24 }
  - { offsetInCU: 0x108AC, offset: 0x108AC, size: 0x8, addend: 0x0, symName: __ZNSt3__122__compressed_pair_elemIPP4BookLi0ELb0EE5__getB7v160006Ev, symObjAddr: 0x5974, symBinAddr: 0x100006064, symSize: 0x14 }
  - { offsetInCU: 0x108EA, offset: 0x108EA, size: 0x8, addend: 0x0, symName: __ZNSt3__16vectorIP4BookNS_9allocatorIS2_EEE21_ConstructTransactionC1B7v160006ERS5_m, symObjAddr: 0x5988, symBinAddr: 0x100006078, symSize: 0x3C }
  - { offsetInCU: 0x10931, offset: 0x10931, size: 0x8, addend: 0x0, symName: __ZNSt3__116allocator_traitsINS_9allocatorIP4BookEEE9constructB7v160006IS3_JS3_EvEEvRS4_PT_DpOT0_, symObjAddr: 0x59C4, symBinAddr: 0x1000060B4, symSize: 0x34 }
  - { offsetInCU: 0x10988, offset: 0x10988, size: 0x8, addend: 0x0, symName: __ZNSt3__16vectorIP4BookNS_9allocatorIS2_EEE21_ConstructTransactionD1B7v160006Ev, symObjAddr: 0x59F8, symBinAddr: 0x1000060E8, symSize: 0x2C }
  - { offsetInCU: 0x109B1, offset: 0x109B1, size: 0x8, addend: 0x0, symName: __ZNSt3__16vectorIP4BookNS_9allocatorIS2_EEE21_ConstructTransactionC2B7v160006ERS5_m, symObjAddr: 0x5A24, symBinAddr: 0x100006114, symSize: 0x44 }
  - { offsetInCU: 0x109F8, offset: 0x109F8, size: 0x8, addend: 0x0, symName: __ZNSt3__19allocatorIP4BookE9constructB7v160006IS2_JS2_EEEvPT_DpOT0_, symObjAddr: 0x5A68, symBinAddr: 0x100006158, symSize: 0x28 }
  - { offsetInCU: 0x10A4D, offset: 0x10A4D, size: 0x8, addend: 0x0, symName: __ZNSt3__16vectorIP4BookNS_9allocatorIS2_EEE21_ConstructTransactionD2B7v160006Ev, symObjAddr: 0x5A90, symBinAddr: 0x100006180, symSize: 0x20 }
  - { offsetInCU: 0x10A75, offset: 0x10A75, size: 0x8, addend: 0x0, symName: __ZNKSt3__16vectorIP4BookNS_9allocatorIS2_EEE11__recommendB7v160006Em, symObjAddr: 0x5AB0, symBinAddr: 0x1000061A0, symSize: 0xB4 }
  - { offsetInCU: 0x10AC9, offset: 0x10AC9, size: 0x8, addend: 0x0, symName: __ZNSt3__114__split_bufferIP4BookRNS_9allocatorIS2_EEEC1EmmS5_, symObjAddr: 0x5B64, symBinAddr: 0x100006254, symSize: 0x44 }
  - { offsetInCU: 0x10B1E, offset: 0x10B1E, size: 0x8, addend: 0x0, symName: __ZNSt3__114__split_bufferIP4BookRNS_9allocatorIS2_EEED1Ev, symObjAddr: 0x5CC0, symBinAddr: 0x1000063B0, symSize: 0x2C }
  - { offsetInCU: 0x10B48, offset: 0x10B48, size: 0x8, addend: 0x0, symName: __ZNKSt3__16vectorIP4BookNS_9allocatorIS2_EEE8max_sizeEv, symObjAddr: 0x5CEC, symBinAddr: 0x1000063DC, symSize: 0x74 }
  - { offsetInCU: 0x10B6F, offset: 0x10B6F, size: 0x8, addend: 0x0, symName: __ZNKSt3__16vectorIP4BookNS_9allocatorIS2_EEE20__throw_length_errorB7v160006Ev, symObjAddr: 0x5D60, symBinAddr: 0x100006450, symSize: 0x1C }
  - { offsetInCU: 0x10B9E, offset: 0x10B9E, size: 0x8, addend: 0x0, symName: __ZNSt3__116allocator_traitsINS_9allocatorIP4BookEEE8max_sizeB7v160006IS4_vEEmRKS4_, symObjAddr: 0x5D7C, symBinAddr: 0x10000646C, symSize: 0x24 }
  - { offsetInCU: 0x10BCC, offset: 0x10BCC, size: 0x8, addend: 0x0, symName: __ZNKSt3__16vectorIP4BookNS_9allocatorIS2_EEE7__allocB7v160006Ev, symObjAddr: 0x5DA0, symBinAddr: 0x100006490, symSize: 0x28 }
  - { offsetInCU: 0x10BF1, offset: 0x10BF1, size: 0x8, addend: 0x0, symName: __ZNKSt3__19allocatorIP4BookE8max_sizeB7v160006Ev, symObjAddr: 0x5DC8, symBinAddr: 0x1000064B8, symSize: 0x14 }
  - { offsetInCU: 0x10C16, offset: 0x10C16, size: 0x8, addend: 0x0, symName: __ZNKSt3__117__compressed_pairIPP4BookNS_9allocatorIS2_EEE6secondB7v160006Ev, symObjAddr: 0x5DDC, symBinAddr: 0x1000064CC, symSize: 0x24 }
  - { offsetInCU: 0x10C3B, offset: 0x10C3B, size: 0x8, addend: 0x0, symName: __ZNKSt3__122__compressed_pair_elemINS_9allocatorIP4BookEELi1ELb1EE5__getB7v160006Ev, symObjAddr: 0x5E00, symBinAddr: 0x1000064F0, symSize: 0x14 }
  - { offsetInCU: 0x10C60, offset: 0x10C60, size: 0x8, addend: 0x0, symName: __ZNSt3__114__split_bufferIP4BookRNS_9allocatorIS2_EEEC2EmmS5_, symObjAddr: 0x5E14, symBinAddr: 0x100006504, symSize: 0xD4 }
  - { offsetInCU: 0x10CD3, offset: 0x10CD3, size: 0x8, addend: 0x0, symName: __ZNSt3__117__compressed_pairIPP4BookRNS_9allocatorIS2_EEEC1B7v160006IDnS6_EEOT_OT0_, symObjAddr: 0x5EE8, symBinAddr: 0x1000065D8, symSize: 0x3C }
  - { offsetInCU: 0x10D2A, offset: 0x10D2A, size: 0x8, addend: 0x0, symName: __ZNSt3__114__split_bufferIP4BookRNS_9allocatorIS2_EEE7__allocB7v160006Ev, symObjAddr: 0x5F64, symBinAddr: 0x100006654, symSize: 0x28 }
  - { offsetInCU: 0x10D4F, offset: 0x10D4F, size: 0x8, addend: 0x0, symName: __ZNSt3__114__split_bufferIP4BookRNS_9allocatorIS2_EEE9__end_capB7v160006Ev, symObjAddr: 0x5F8C, symBinAddr: 0x10000667C, symSize: 0x28 }
  - { offsetInCU: 0x10D74, offset: 0x10D74, size: 0x8, addend: 0x0, symName: __ZNSt3__117__compressed_pairIPP4BookRNS_9allocatorIS2_EEEC2B7v160006IDnS6_EEOT_OT0_, symObjAddr: 0x5FB4, symBinAddr: 0x1000066A4, symSize: 0x48 }
  - { offsetInCU: 0x10DCB, offset: 0x10DCB, size: 0x8, addend: 0x0, symName: __ZNSt3__122__compressed_pair_elemIRNS_9allocatorIP4BookEELi1ELb0EEC2B7v160006IS5_vEEOT_, symObjAddr: 0x5FFC, symBinAddr: 0x1000066EC, symSize: 0x20 }
  - { offsetInCU: 0x10E0C, offset: 0x10E0C, size: 0x8, addend: 0x0, symName: __ZNSt3__19allocatorIP4BookE8allocateB7v160006Em, symObjAddr: 0x601C, symBinAddr: 0x10000670C, symSize: 0x84 }
  - { offsetInCU: 0x10E3F, offset: 0x10E3F, size: 0x8, addend: 0x0, symName: __ZNSt3__117__compressed_pairIPP4BookRNS_9allocatorIS2_EEE6secondB7v160006Ev, symObjAddr: 0x60A0, symBinAddr: 0x100006790, symSize: 0x28 }
  - { offsetInCU: 0x10E64, offset: 0x10E64, size: 0x8, addend: 0x0, symName: __ZNSt3__122__compressed_pair_elemIRNS_9allocatorIP4BookEELi1ELb0EE5__getB7v160006Ev, symObjAddr: 0x60C8, symBinAddr: 0x1000067B8, symSize: 0x18 }
  - { offsetInCU: 0x10E89, offset: 0x10E89, size: 0x8, addend: 0x0, symName: __ZNSt3__117__compressed_pairIPP4BookRNS_9allocatorIS2_EEE5firstB7v160006Ev, symObjAddr: 0x60E0, symBinAddr: 0x1000067D0, symSize: 0x24 }
  - { offsetInCU: 0x10EAE, offset: 0x10EAE, size: 0x8, addend: 0x0, symName: __ZNSt3__116reverse_iteratorIPP4BookEC1B7v160006ES3_, symObjAddr: 0x61EC, symBinAddr: 0x1000068DC, symSize: 0x34 }
  - { offsetInCU: 0x10EE5, offset: 0x10EE5, size: 0x8, addend: 0x0, symName: __ZNKSt3__116reverse_iteratorIPP4BookE4baseB7v160006Ev, symObjAddr: 0x6220, symBinAddr: 0x100006910, symSize: 0x18 }
  - { offsetInCU: 0x10F0A, offset: 0x10F0A, size: 0x8, addend: 0x0, symName: __ZNKSt3__16vectorIP4BookNS_9allocatorIS2_EEE14__annotate_newB7v160006Em, symObjAddr: 0x6274, symBinAddr: 0x100006964, symSize: 0xAC }
  - { offsetInCU: 0x10F3E, offset: 0x10F3E, size: 0x8, addend: 0x0, symName: __ZNKSt3__116reverse_iteratorIPP4BookEdeB7v160006Ev, symObjAddr: 0x63C8, symBinAddr: 0x100006AB8, symSize: 0x28 }
  - { offsetInCU: 0x10F71, offset: 0x10F71, size: 0x8, addend: 0x0, symName: __ZNSt3__116reverse_iteratorIPP4BookEppB7v160006Ev, symObjAddr: 0x63F0, symBinAddr: 0x100006AE0, symSize: 0x20 }
  - { offsetInCU: 0x10F9B, offset: 0x10F9B, size: 0x8, addend: 0x0, symName: __ZNSt3__119__to_address_helperINS_16reverse_iteratorIPP4BookEEvE6__callB7v160006ERKS5_, symObjAddr: 0x6488, symBinAddr: 0x100006B78, symSize: 0x4C }
  - { offsetInCU: 0x10FBE, offset: 0x10FBE, size: 0x8, addend: 0x0, symName: __ZNKSt3__116reverse_iteratorIPP4BookEptB7v160006Ev, symObjAddr: 0x64D4, symBinAddr: 0x100006BC4, symSize: 0x24 }
  - { offsetInCU: 0x10FFC, offset: 0x10FFC, size: 0x8, addend: 0x0, symName: __ZNKSt3__111__move_loopINS_17_ClassicAlgPolicyEEclB7v160006INS_16reverse_iteratorIPP4BookEES8_S8_EENS_4pairIT_T1_EESA_T0_SB_, symObjAddr: 0x6788, symBinAddr: 0x100006E78, symSize: 0xA0 }
  - { offsetInCU: 0x11066, offset: 0x11066, size: 0x8, addend: 0x0, symName: __ZNSt3__18_IterOpsINS_17_ClassicAlgPolicyEE11__iter_moveB7v160006IRNS_16reverse_iteratorIPP4BookEEEENS_9enable_ifIXsr12is_referenceIDTdeclsr3stdE7declvalIRT_EEEEE5valueEDTclsr3stdE4movedeclsr3stdE7declvalISC_EEEEE4typeEOSB_, symObjAddr: 0x6988, symBinAddr: 0x100007078, symSize: 0x28 }
  - { offsetInCU: 0x11092, offset: 0x11092, size: 0x8, addend: 0x0, symName: __ZNSt3__18_IterOpsINS_17_ClassicAlgPolicyEE25__validate_iter_referenceB7v160006IRNS_16reverse_iteratorIPP4BookEEEEvv, symObjAddr: 0x69B0, symBinAddr: 0x1000070A0, symSize: 0x4 }
  - { offsetInCU: 0x110B0, offset: 0x110B0, size: 0x8, addend: 0x0, symName: __ZNSt3__118__unwrap_iter_implINS_16reverse_iteratorIPP4BookEELb0EE8__unwrapB7v160006ES5_, symObjAddr: 0x69B4, symBinAddr: 0x1000070A4, symSize: 0x24 }
  - { offsetInCU: 0x110D3, offset: 0x110D3, size: 0x8, addend: 0x0, symName: __ZNSt3__14pairINS_16reverse_iteratorIPP4BookEES5_EC1B7v160006ERKS5_S8_, symObjAddr: 0x69D8, symBinAddr: 0x1000070C8, symSize: 0x3C }
  - { offsetInCU: 0x11118, offset: 0x11118, size: 0x8, addend: 0x0, symName: __ZNSt3__14pairINS_16reverse_iteratorIPP4BookEES5_EC2B7v160006ERKS5_S8_, symObjAddr: 0x6A14, symBinAddr: 0x100007104, symSize: 0x34 }
  - { offsetInCU: 0x1115D, offset: 0x1115D, size: 0x8, addend: 0x0, symName: __ZNSt3__118__unwrap_iter_implINS_16reverse_iteratorIPP4BookEELb0EE8__rewrapB7v160006ES5_S5_, symObjAddr: 0x6A48, symBinAddr: 0x100007138, symSize: 0x2C }
  - { offsetInCU: 0x1118B, offset: 0x1118B, size: 0x8, addend: 0x0, symName: __ZNSt3__116reverse_iteratorIPP4BookEC2B7v160006ES3_, symObjAddr: 0x6A74, symBinAddr: 0x100007164, symSize: 0x28 }
  - { offsetInCU: 0x111C2, offset: 0x111C2, size: 0x8, addend: 0x0, symName: __ZNSt3__114__split_bufferIP4BookRNS_9allocatorIS2_EEED2Ev, symObjAddr: 0x6A9C, symBinAddr: 0x10000718C, symSize: 0x80 }
  - { offsetInCU: 0x111ED, offset: 0x111ED, size: 0x8, addend: 0x0, symName: __ZNSt3__114__split_bufferIP4BookRNS_9allocatorIS2_EEE5clearB7v160006Ev, symObjAddr: 0x6B1C, symBinAddr: 0x10000720C, symSize: 0x28 }
  - { offsetInCU: 0x11212, offset: 0x11212, size: 0x8, addend: 0x0, symName: __ZNKSt3__114__split_bufferIP4BookRNS_9allocatorIS2_EEE8capacityB7v160006Ev, symObjAddr: 0x6B44, symBinAddr: 0x100007234, symSize: 0x40 }
  - { offsetInCU: 0x11237, offset: 0x11237, size: 0x8, addend: 0x0, symName: __ZNSt3__114__split_bufferIP4BookRNS_9allocatorIS2_EEE17__destruct_at_endB7v160006EPS2_, symObjAddr: 0x6B84, symBinAddr: 0x100007274, symSize: 0x2C }
  - { offsetInCU: 0x11269, offset: 0x11269, size: 0x8, addend: 0x0, symName: __ZNSt3__114__split_bufferIP4BookRNS_9allocatorIS2_EEE17__destruct_at_endB7v160006EPS2_NS_17integral_constantIbLb0EEE, symObjAddr: 0x6BB0, symBinAddr: 0x1000072A0, symSize: 0x94 }
  - { offsetInCU: 0x112A9, offset: 0x112A9, size: 0x8, addend: 0x0, symName: __ZNKSt3__114__split_bufferIP4BookRNS_9allocatorIS2_EEE9__end_capB7v160006Ev, symObjAddr: 0x6C44, symBinAddr: 0x100007334, symSize: 0x28 }
  - { offsetInCU: 0x112CE, offset: 0x112CE, size: 0x8, addend: 0x0, symName: __ZNKSt3__117__compressed_pairIPP4BookRNS_9allocatorIS2_EEE5firstB7v160006Ev, symObjAddr: 0x6C6C, symBinAddr: 0x10000735C, symSize: 0x24 }
  - { offsetInCU: 0x112F3, offset: 0x112F3, size: 0x8, addend: 0x0, symName: __ZNSt3__112basic_stringIcNS_11char_traitsIcEENS_9allocatorIcEEEC2B7v160006IDnEEPKc, symObjAddr: 0x6C90, symBinAddr: 0x100007380, symSize: 0x60 }
...
